ARM Linker, RVCT3.1 [Build 934] for uVision [Standard]

================================================================================

Section Cross References

    startup.o(STACK) refers (Special) to stkheap2.o(.text) for __use_two_region_memory
    startup.o(HEAP) refers (Special) to stkheap2.o(.text) for __use_two_region_memory
    startup.o(RESET) refers to startup.o(STACK) for Stack_Top
    startup.o(RESET) refers to __main.o(!!!main) for __main
    startup.o(RESET) refers (Special) to stkheap2.o(.text) for __use_two_region_memory
    startup.o(.text) refers to startup.o(HEAP) for Heap_Mem
    startup.o(.text) refers to startup.o(STACK) for Stack_Mem
    startup.o(.text) refers (Special) to stkheap2.o(.text) for __use_two_region_memory
    main.o(.text) refers to aeabi_sdiv.o(.text_udiv) for __aeabi_uidivmod
    main.o(.text) refers to main.o(.constdata) for ZFTABLE
    main.o(.text) refers to main.o(.data) for KeyPf
    main.o(.text) refers to main.o(.bss) for rcv_databuf1
    main.o(.text) refers to __0sprintf.o(.text) for __1sprintf
    main.o(.text) refers to dflt_noclz.o(x$fpl$dfltu) for __aeabi_ui2d
    main.o(.text) refers to dflt_noclz.o(x$fpl$dflt) for __aeabi_i2d
    main.o(.text) refers to dmul.o(x$fpl$dmul) for __aeabi_dmul
    main.o(.text) refers to daddsub_noclz.o(x$fpl$dadd) for __aeabi_dadd
    main.o(.text) refers to daddsub_noclz.o(x$fpl$dsub) for __aeabi_dsub
    main.o(.text) refers to d2f.o(x$fpl$d2f) for __aeabi_d2f
    main.o(.text) refers to ddiv.o(x$fpl$ddiv) for __aeabi_ddiv
    main.o(.text) refers to f2d.o(x$fpl$f2d) for __aeabi_f2d
    main.o(.text) refers to dfix.o(x$fpl$dfix) for __aeabi_d2iz
    main.o(.text) refers to aeabi_sdiv.o(.text) for __aeabi_idivmod
    main.o(.text) refers to frleqf.o(x$fpl$frleqf) for __aeabi_cfrcmple
    main.o(.text) refers to fleqf.o(x$fpl$fleqf) for __aeabi_cfcmple
    main.o(.text) refers to faddsub_noclz.o(x$fpl$fsub) for __aeabi_fsub
    main.o(.text) refers to faddsub_noclz.o(x$fpl$fadd) for __aeabi_fadd
    main.o(.text) refers to drleqf.o(x$fpl$drleqf) for __aeabi_cdrcmple
    main.o(.text) refers to dleqf.o(x$fpl$dleqf) for __aeabi_cdcmple
    main.o(.text) refers to daddsub_noclz.o(x$fpl$drsb) for __aeabi_drsub
    main.o(.text) refers to deqf.o(x$fpl$deqf) for __aeabi_cdcmpeq
    main.o(.text) refers to cos.o(i.cos) for cos
    main.o(.text) refers to tan.o(i.tan) for tan
    main.o(.text) refers to sin.o(i.sin) for sin
    main.o(.text) refers to acos.o(i.acos) for acos
    main.o(.text) refers to rt_memcpy_w.o(.text) for __aeabi_memcpy4
    main.o(.text) refers to atan.o(i.atan) for atan
    main.o(.text) refers to asin.o(i.asin) for asin
    main.o(.text) refers to sqrt.o(i.sqrt) for sqrt
    main.o(.text) refers to strlen.o(.text) for strlen
    main.o(.text) refers to ffix.o(x$fpl$ffix) for __aeabi_f2iz
    main.o(.text) refers to ffixu.o(x$fpl$ffixu) for __aeabi_f2uiz
    main.o(.text) refers to fmul.o(x$fpl$fmul) for __aeabi_fmul
    main.o(.text) refers to fflt_noclz.o(x$fpl$fflt) for __aeabi_i2f
    main.o(.text) refers to faddsub_noclz.o(x$fpl$frsb) for __aeabi_frsub
    main.o(.text) refers to feqf.o(x$fpl$feqf) for __aeabi_cfcmpeq
    main.o(.text) refers to atoi.o(.text) for atoi
    main.o(.text) refers to fflt_noclz.o(x$fpl$ffltu) for __aeabi_ui2f
    main.o(.text) refers to atof.o(i.atof) for atof
    main.o(.text) refers to fdiv.o(x$fpl$fdiv) for __aeabi_fdiv
    main.o(.text) refers (Special) to printf1.o(x$fpl$printf1) for _printf_fp_dec
    main.o(.text) refers (Special) to _scanf_longlong.o(.text) for _scanf_longlong
    main.o(.text) refers (Special) to __printf.o(.text) for _printf_sizespec
    main.o(.text) refers (Special) to _printf_pad.o(.text) for _printf_pre_padding
    main.o(.text) refers (Special) to _printf_dec.o(.text) for _printf_int_dec
    main.o(.data) refers (Special) to printf1.o(x$fpl$printf1) for _printf_fp_dec
    main.o(.data) refers (Special) to _scanf_longlong.o(.text) for _scanf_longlong
    main.o(.data) refers (Special) to __printf.o(.text) for _printf_sizespec
    main.o(.data) refers (Special) to _printf_pad.o(.text) for _printf_pre_padding
    main.o(.data) refers (Special) to _printf_dec.o(.text) for _printf_int_dec
    main.o(.constdata) refers (Special) to printf1.o(x$fpl$printf1) for _printf_fp_dec
    main.o(.constdata) refers (Special) to _scanf_longlong.o(.text) for _scanf_longlong
    main.o(.constdata) refers (Special) to __printf.o(.text) for _printf_sizespec
    main.o(.constdata) refers (Special) to _printf_pad.o(.text) for _printf_pre_padding
    main.o(.constdata) refers (Special) to _printf_dec.o(.text) for _printf_int_dec
    main.o(.bss) refers (Special) to printf1.o(x$fpl$printf1) for _printf_fp_dec
    main.o(.bss) refers (Special) to _scanf_longlong.o(.text) for _scanf_longlong
    main.o(.bss) refers (Special) to __printf.o(.text) for _printf_sizespec
    main.o(.bss) refers (Special) to _printf_pad.o(.text) for _printf_pre_padding
    main.o(.bss) refers (Special) to _printf_dec.o(.text) for _printf_int_dec
    __printf.o(.text) refers to callvia.o(.text) for __ARM_call_via_r1
    __printf.o(.text) refers (Weak) to _printf_dec.o(.text) for _printf_int_dec
    __printf.o(.text) refers (Weak) to printf1.o(x$fpl$printf1) for _printf_fp_dec
    __printf.o(.text) refers to __printf.o(.constdata) for .constdata
    _printf_pad.o(.text) refers to callvia.o(.text) for __ARM_call_via_r2
    _printf_dec.o(.text) refers to rtudiv10.o(.text) for __rt_udiv10
    _printf_dec.o(.text) refers to _printf_intcommon.o(.text) for _printf_int_common
    __0sprintf.o(.text) refers to _printf_char_common.o(.text) for _printf_char_common
    __0sprintf.o(.text) refers to _sputc.o(.text) for _sputc
    atoi.o(.text) refers to rt_errno_addr_intlibspace.o(.text) for __aeabi_errno_addr
    atoi.o(.text) refers to strtol.o(.text) for strtol
    _scanf_longlong.o(.text) refers to callvia.o(.text) for __ARM_call_via_r1
    _scanf_longlong.o(.text) refers to llmul.o(.text) for __aeabi_lmul
    _scanf_longlong.o(.text) refers to _chval.o(.text) for _chval
    aeabi_sdiv.o(.text_udiv) refers to aeabi_sdiv.o(.text) for __arm_div4
    aeabi_sdiv_div0.o(.text_udiv) refers to aeabi_sdiv_div0.o(.text) for __arm_div4
    stkheap2.o(.text) refers to sys_stackheap_outer.o(.text) for __user_setup_stackheap
    stkheap2.o(.text) refers to rt_stackheap_storage_intlibspace.o(.text) for __rt_stackheap_storage
    __main.o(!!!main) refers to kernel.o(.text) for __rt_entry
    d2f.o(x$fpl$d2f) refers to dcheck1.o(x$fpl$dcheck1) for __fpl_dcheck_NaN1
    d2f.o(x$fpl$d2f) refers (Special) to usenofp.o(x$fpl$usenofp) for __I_use_fp
    d2f.o(x$fpl$d2f) refers (Special) to funder.o(x$fpl$funder) for __funder
    daddsub_noclz.o(x$fpl$dadd) refers to daddsub_noclz.o(x$fpl$dsub) for _dsub1
    daddsub_noclz.o(x$fpl$dadd) refers to dcheck.o(x$fpl$dcheck) for __fpl_dcheck_NaN2
    daddsub_noclz.o(x$fpl$dadd) refers (Special) to usenofp.o(x$fpl$usenofp) for __I_use_fp
    daddsub_noclz.o(x$fpl$dadd) refers (Special) to dunder.o(x$fpl$dunder) for __dunder_d
    daddsub_noclz.o(x$fpl$drsb) refers to daddsub_noclz.o(x$fpl$dadd) for _dadd1
    daddsub_noclz.o(x$fpl$drsb) refers to daddsub_noclz.o(x$fpl$dsub) for _dsub1
    daddsub_noclz.o(x$fpl$drsb) refers (Special) to usenofp.o(x$fpl$usenofp) for __I_use_fp
    daddsub_noclz.o(x$fpl$drsb) refers (Special) to dunder.o(x$fpl$dunder) for __dunder_d
    daddsub_noclz.o(x$fpl$dsub) refers to daddsub_noclz.o(x$fpl$dadd) for _dadd1
    daddsub_noclz.o(x$fpl$dsub) refers to dcheck.o(x$fpl$dcheck) for __fpl_dcheck_NaN2
    daddsub_noclz.o(x$fpl$dsub) refers (Special) to usenofp.o(x$fpl$usenofp) for __I_use_fp
    daddsub_noclz.o(x$fpl$dsub) refers (Special) to dunder.o(x$fpl$dunder) for __dunder_d
    ddiv.o(x$fpl$drdiv) refers to ddiv.o(x$fpl$ddiv) for ddiv_entry
    ddiv.o(x$fpl$drdiv) refers (Special) to usenofp.o(x$fpl$usenofp) for __I_use_fp
    ddiv.o(x$fpl$drdiv) refers (Special) to dunder.o(x$fpl$dunder) for __dunder
    ddiv.o(x$fpl$ddiv) refers to dcheck.o(x$fpl$dcheck) for __fpl_dcheck_NaN2
    ddiv.o(x$fpl$ddiv) refers (Special) to usenofp.o(x$fpl$usenofp) for __I_use_fp
    ddiv.o(x$fpl$ddiv) refers (Special) to dunder.o(x$fpl$dunder) for __dunder
    dfix.o(x$fpl$dfix) refers to dcheck1.o(x$fpl$dcheck1) for __fpl_dcheck_NaN1
    dfix.o(x$fpl$dfix) refers (Special) to usenofp.o(x$fpl$usenofp) for __I_use_fp
    dfix.o(x$fpl$dfixr) refers to dcheck1.o(x$fpl$dcheck1) for __fpl_dcheck_NaN1
    dfix.o(x$fpl$dfixr) refers (Special) to usenofp.o(x$fpl$usenofp) for __I_use_fp
    dflt_noclz.o(x$fpl$dfltu) refers to dflt_noclz.o(x$fpl$dflt) for __dflt_normalise
    dflt_noclz.o(x$fpl$dfltu) refers (Special) to usenofp.o(x$fpl$usenofp) for __I_use_fp
    dflt_noclz.o(x$fpl$dflt) refers (Special) to usenofp.o(x$fpl$usenofp) for __I_use_fp
    dmul.o(x$fpl$dmul) refers to dcheck.o(x$fpl$dcheck) for __fpl_dcheck_NaN2
    dmul.o(x$fpl$dmul) refers (Special) to usenofp.o(x$fpl$usenofp) for __I_use_fp
    dmul.o(x$fpl$dmul) refers (Special) to dunder.o(x$fpl$dunder) for __dunder
    f2d.o(x$fpl$f2d) refers to fcheck1.o(x$fpl$fcheck1) for __fpl_fcheck_NaN1
    f2d.o(x$fpl$f2d) refers (Special) to usenofp.o(x$fpl$usenofp) for __I_use_fp
    f2d.o(x$fpl$f2d) refers (Special) to dflt_noclz.o(x$fpl$dflt) for __dflt_normalise
    faddsub_noclz.o(x$fpl$fadd) refers to faddsub_noclz.o(x$fpl$fsub) for _fsub1
    faddsub_noclz.o(x$fpl$fadd) refers to fcheck.o(x$fpl$fcheck) for __fpl_fcheck_NaN2
    faddsub_noclz.o(x$fpl$fadd) refers (Special) to usenofp.o(x$fpl$usenofp) for __I_use_fp
    faddsub_noclz.o(x$fpl$fadd) refers (Special) to funder.o(x$fpl$funder) for __funder_d
    faddsub_noclz.o(x$fpl$frsb) refers to faddsub_noclz.o(x$fpl$fadd) for _fadd1
    faddsub_noclz.o(x$fpl$frsb) refers to faddsub_noclz.o(x$fpl$fsub) for _fsub1
    faddsub_noclz.o(x$fpl$frsb) refers (Special) to usenofp.o(x$fpl$usenofp) for __I_use_fp
    faddsub_noclz.o(x$fpl$frsb) refers (Special) to funder.o(x$fpl$funder) for __funder_d
    faddsub_noclz.o(x$fpl$fsub) refers to faddsub_noclz.o(x$fpl$fadd) for _fadd1
    faddsub_noclz.o(x$fpl$fsub) refers to fcheck.o(x$fpl$fcheck) for __fpl_fcheck_NaN2
    faddsub_noclz.o(x$fpl$fsub) refers (Special) to usenofp.o(x$fpl$usenofp) for __I_use_fp
    faddsub_noclz.o(x$fpl$fsub) refers (Special) to funder.o(x$fpl$funder) for __funder_d
    fdiv.o(x$fpl$frdiv) refers to fdiv.o(x$fpl$fdiv) for _fdiv1
    fdiv.o(x$fpl$frdiv) refers (Special) to usenofp.o(x$fpl$usenofp) for __I_use_fp
    fdiv.o(x$fpl$frdiv) refers (Special) to funder.o(x$fpl$funder) for __funder
    fdiv.o(x$fpl$frdiv) refers (Special) to fnorm2_noclz.o(x$fpl$fnorm2) for __fpl_normalise2
    fdiv.o(x$fpl$fdiv) refers to fcheck.o(x$fpl$fcheck) for __fpl_fcheck_NaN2
    fdiv.o(x$fpl$fdiv) refers (Special) to usenofp.o(x$fpl$usenofp) for __I_use_fp
    fdiv.o(x$fpl$fdiv) refers (Special) to funder.o(x$fpl$funder) for __funder
    fdiv.o(x$fpl$fdiv) refers (Special) to fnorm2_noclz.o(x$fpl$fnorm2) for __fpl_normalise2
    ffix.o(x$fpl$ffix) refers to fcheck1.o(x$fpl$fcheck1) for __fpl_fcheck_NaN1
    ffix.o(x$fpl$ffix) refers (Special) to usenofp.o(x$fpl$usenofp) for __I_use_fp
    ffix.o(x$fpl$ffixr) refers to fcheck1.o(x$fpl$fcheck1) for __fpl_fcheck_NaN1
    ffix.o(x$fpl$ffixr) refers (Special) to usenofp.o(x$fpl$usenofp) for __I_use_fp
    ffixu.o(x$fpl$ffixu) refers to fcheck1.o(x$fpl$fcheck1) for __fpl_fcheck_NaN1
    ffixu.o(x$fpl$ffixu) refers (Special) to usenofp.o(x$fpl$usenofp) for __I_use_fp
    ffixu.o(x$fpl$ffixur) refers to fcheck1.o(x$fpl$fcheck1) for __fpl_fcheck_NaN1
    ffixu.o(x$fpl$ffixur) refers (Special) to usenofp.o(x$fpl$usenofp) for __I_use_fp
    fflt_noclz.o(x$fpl$ffltu) refers to fflt_noclz.o(x$fpl$fflt) for __fflt_normalise
    fflt_noclz.o(x$fpl$ffltu) refers (Special) to usenofp.o(x$fpl$usenofp) for __I_use_fp
    fflt_noclz.o(x$fpl$fflt) refers (Special) to usenofp.o(x$fpl$usenofp) for __I_use_fp
    fmul.o(x$fpl$fmul) refers to fcheck.o(x$fpl$fcheck) for __fpl_fcheck_NaN2
    fmul.o(x$fpl$fmul) refers (Special) to usenofp.o(x$fpl$usenofp) for __I_use_fp
    fmul.o(x$fpl$fmul) refers (Special) to funder.o(x$fpl$funder) for __funder
    fmul.o(x$fpl$fmul) refers (Special) to fnorm2_noclz.o(x$fpl$fnorm2) for __fpl_normalise2
    deqf.o(x$fpl$deqf) refers to dcmpin.o(x$fpl$dcmpinfnan) for __fpl_dcmp_InfNaN
    deqf.o(x$fpl$deqf) refers (Special) to usenofp.o(x$fpl$usenofp) for __I_use_fp
    dleqf.o(x$fpl$dleqf) refers to dcmpin.o(x$fpl$dcmpinfnan) for __fpl_dcmp_InfNaN
    dleqf.o(x$fpl$dleqf) refers (Special) to usenofp.o(x$fpl$usenofp) for __I_use_fp
    drleqf.o(x$fpl$drleqf) refers to dcmpin.o(x$fpl$dcmpinfnan) for __fpl_dcmp_InfNaN
    drleqf.o(x$fpl$drleqf) refers (Special) to usenofp.o(x$fpl$usenofp) for __I_use_fp
    feqf.o(x$fpl$feqf) refers to fcmpin.o(x$fpl$dcmpinfnan) for __fpl_fcmp_InfNaN
    feqf.o(x$fpl$feqf) refers (Special) to usenofp.o(x$fpl$usenofp) for __I_use_fp
    fleqf.o(x$fpl$fleqf) refers to fcmpin.o(x$fpl$dcmpinfnan) for __fpl_fcmp_InfNaN
    fleqf.o(x$fpl$fleqf) refers (Special) to usenofp.o(x$fpl$usenofp) for __I_use_fp
    frleqf.o(x$fpl$frleqf) refers to fcmpin.o(x$fpl$dcmpinfnan) for __fpl_fcmp_InfNaN
    frleqf.o(x$fpl$frleqf) refers (Special) to usenofp.o(x$fpl$usenofp) for __I_use_fp
    printf1.o(x$fpl$printf1) refers to _printf_fp_dec.o(.text) for _printf_fp_dec_real
    printf1.o(x$fpl$printf1) refers (Special) to usenofp.o(x$fpl$usenofp) for __I_use_fp
    acos.o(i.acos) refers to _rserrno.o(.text) for __set_errno
    acos.o(i.acos) refers to dmul.o(x$fpl$dmul) for __aeabi_dmul
    acos.o(i.acos) refers to poly.o(i.__kernel_poly) for __kernel_poly
    acos.o(i.acos) refers to daddsub_noclz.o(x$fpl$dadd) for __aeabi_dadd
    acos.o(i.acos) refers to ddiv.o(x$fpl$ddiv) for __aeabi_ddiv
    acos.o(i.acos) refers to daddsub_noclz.o(x$fpl$drsb) for __aeabi_drsub
    acos.o(i.acos) refers to scalbn_noclz.o(x$fpl$scalbn) for __ARM_scalbn
    acos.o(i.acos) refers to sqrt.o(i.sqrt) for sqrt
    acos.o(i.acos) refers to daddsub_noclz.o(x$fpl$dsub) for __aeabi_dsub
    acos.o(i.acos) refers to acos.o(.constdata) for .constdata
    acos.o(i.acos) refers (Special) to usenofp.o(x$fpl$usenofp) for __I_use_fp
    acos.o(i.__softfp_acos) refers to acos.o(i.acos) for acos
    acos.o(i.__softfp_acos) refers (Special) to usenofp.o(x$fpl$usenofp) for __I_use_fp
    acos.o(.constdata) refers (Special) to usenofp.o(x$fpl$usenofp) for __I_use_fp
    asin.o(i.asin) refers to dmul.o(x$fpl$dmul) for __aeabi_dmul
    asin.o(i.asin) refers to scalbn_noclz.o(x$fpl$scalbn) for __ARM_scalbn
    asin.o(i.asin) refers to _rserrno.o(.text) for __set_errno
    asin.o(i.asin) refers to daddsub_noclz.o(x$fpl$dadd) for __aeabi_dadd
    asin.o(i.asin) refers to drleqf.o(x$fpl$drleqf) for __aeabi_cdrcmple
    asin.o(i.asin) refers to poly.o(i.__kernel_poly) for __kernel_poly
    asin.o(i.asin) refers to ddiv.o(x$fpl$ddiv) for __aeabi_ddiv
    asin.o(i.asin) refers to daddsub_noclz.o(x$fpl$drsb) for __aeabi_drsub
    asin.o(i.asin) refers to sqrt.o(i.sqrt) for sqrt
    asin.o(i.asin) refers to daddsub_noclz.o(x$fpl$dsub) for __aeabi_dsub
    asin.o(i.asin) refers to asin.o(.constdata) for .constdata
    asin.o(i.asin) refers (Special) to usenofp.o(x$fpl$usenofp) for __I_use_fp
    asin.o(i.__softfp_asin) refers to asin.o(i.asin) for asin
    asin.o(i.__softfp_asin) refers (Special) to usenofp.o(x$fpl$usenofp) for __I_use_fp
    asin.o(.constdata) refers (Special) to usenofp.o(x$fpl$usenofp) for __I_use_fp
    atan.o(i.atan) refers to scalbn_noclz.o(x$fpl$scalbn) for __ARM_scalbn
    atan.o(i.atan) refers to daddsub_noclz.o(x$fpl$dsub) for __aeabi_dsub
    atan.o(i.atan) refers to daddsub_noclz.o(x$fpl$dadd) for __aeabi_dadd
    atan.o(i.atan) refers to drleqf.o(x$fpl$drleqf) for __aeabi_cdrcmple
    atan.o(i.atan) refers to dmul.o(x$fpl$dmul) for __aeabi_dmul
    atan.o(i.atan) refers to ddiv.o(x$fpl$ddiv) for __aeabi_ddiv
    atan.o(i.atan) refers to poly.o(i.__kernel_poly) for __kernel_poly
    atan.o(i.atan) refers to daddsub_noclz.o(x$fpl$drsb) for __aeabi_drsub
    atan.o(i.atan) refers to atan.o(.constdata) for .constdata
    atan.o(i.atan) refers (Special) to usenofp.o(x$fpl$usenofp) for __I_use_fp
    atan.o(i.__softfp_atan) refers to atan.o(i.atan) for atan
    atan.o(i.__softfp_atan) refers (Special) to usenofp.o(x$fpl$usenofp) for __I_use_fp
    atan.o(.constdata) refers (Special) to usenofp.o(x$fpl$usenofp) for __I_use_fp
    atof.o(i.atof) refers to _rserrno.o(.text) for __read_errno
    atof.o(i.atof) refers to strtod.o(.text) for __strtod_int
    atof.o(i.atof) refers (Special) to usenofp.o(x$fpl$usenofp) for __I_use_fp
    atof.o(i.__softfp_atof) refers to atof.o(i.atof) for atof
    atof.o(i.__softfp_atof) refers (Special) to usenofp.o(x$fpl$usenofp) for __I_use_fp
    cos.o(i.cos) refers to cos_i.o(i.__kernel_cos) for __kernel_cos
    cos.o(i.cos) refers to _rserrno.o(.text) for __set_errno
    cos.o(i.cos) refers to scalbn_noclz.o(x$fpl$scalbn) for __ARM_scalbn
    cos.o(i.cos) refers to rred.o(i.__ieee754_rem_pio2) for __ieee754_rem_pio2
    cos.o(i.cos) refers to sin_i.o(i.__kernel_sin) for __kernel_sin
    cos.o(i.cos) refers (Special) to usenofp.o(x$fpl$usenofp) for __I_use_fp
    cos.o(i.__softfp_cos) refers to cos.o(i.cos) for cos
    cos.o(i.__softfp_cos) refers (Special) to usenofp.o(x$fpl$usenofp) for __I_use_fp
    sin.o(i.sin) refers to _rserrno.o(.text) for __set_errno
    sin.o(i.sin) refers to scalbn_noclz.o(x$fpl$scalbn) for __ARM_scalbn
    sin.o(i.sin) refers to rred.o(i.__ieee754_rem_pio2) for __ieee754_rem_pio2
    sin.o(i.sin) refers to sin_i.o(i.__kernel_sin) for __kernel_sin
    sin.o(i.sin) refers to cos_i.o(i.__kernel_cos) for __kernel_cos
    sin.o(i.sin) refers (Special) to usenofp.o(x$fpl$usenofp) for __I_use_fp
    sin.o(i.__softfp_sin) refers to sin.o(i.sin) for sin
    sin.o(i.__softfp_sin) refers (Special) to usenofp.o(x$fpl$usenofp) for __I_use_fp
    sqrt.o(i.sqrt) refers to dleqf.o(x$fpl$dleqf) for __aeabi_cdcmple
    sqrt.o(i.sqrt) refers to _rserrno.o(.text) for __set_errno
    sqrt.o(i.sqrt) refers to dsqrt.o(x$fpl$dsqrt) for _dsqrt
    sqrt.o(i.sqrt) refers (Special) to usenofp.o(x$fpl$usenofp) for __I_use_fp
    sqrt.o(i.__softfp_sqrt) refers to sqrt.o(i.sqrt) for sqrt
    sqrt.o(i.__softfp_sqrt) refers (Special) to usenofp.o(x$fpl$usenofp) for __I_use_fp
    tan.o(i.tan) refers to _rserrno.o(.text) for __set_errno
    tan.o(i.tan) refers to scalbn_noclz.o(x$fpl$scalbn) for __ARM_scalbn
    tan.o(i.tan) refers to rred.o(i.__ieee754_rem_pio2) for __ieee754_rem_pio2
    tan.o(i.tan) refers to tan_i.o(i.__kernel_tan) for __kernel_tan
    tan.o(i.tan) refers (Special) to usenofp.o(x$fpl$usenofp) for __I_use_fp
    tan.o(i.__softfp_tan) refers to tan.o(i.tan) for tan
    tan.o(i.__softfp_tan) refers (Special) to usenofp.o(x$fpl$usenofp) for __I_use_fp
    kernel.o(.text) refers to stkheap2.o(.text) for __rt_stackheap_init
    kernel.o(.text) refers to boardinit2.o(.text) for _platform_post_stackheap_init
    kernel.o(.text) refers to lib_init.o(.text) for __rt_lib_init
    kernel.o(.text) refers to boardinit3.o(.text) for _platform_post_lib_init
    kernel.o(.text) refers to exit.o(.text) for exit
    kernel.o(.text) refers to main.o(.text) for main
    kernel.o(.text) refers to sys_exit.o(.text) for _sys_exit
    kernel.o(.ARM.exidx) refers to kernel.o(.text) for __rt_entry
    sys_stackheap_outer.o(.text) refers to libspace.o(.text) for __user_perproc_libspace
    sys_stackheap_outer.o(.text) refers to startup.o(.text) for __user_initial_stackheap
    rt_errno_addr.o(.text) refers to rt_errno_addr.o(.bss) for __aeabi_errno_addr_data
    aeabi_idiv0_sigfpe.o(.text) refers to rt_div0.o(.text) for __rt_div0
    rt_errno_addr_intlibspace.o(.text) refers to libspace.o(.bss) for __libspace_start
    rt_stackheap_storage.o(.text) refers to rt_stackheap_storage.o(.bss) for __rt_stackheap_storage_data
    rt_stackheap_storage_intlibspace.o(.text) refers to libspace.o(.bss) for __libspace_start
    _rserrno.o(.text) refers to rt_errno_addr_intlibspace.o(.text) for __aeabi_errno_addr
    _printf_intcommon.o(.text) refers (Weak) to _printf_pad.o(.text) for _printf_pre_padding
    _printf_intcommon.o(.text) refers to callvia.o(.text) for __ARM_call_via_r2
    _printf_intcommon.o(.text) refers (Weak) to _printf_pad.o(.text) for _printf_pre_padding
    _printf_intcommon.o(.text) refers (Weak) to _printf_pad.o(.text) for _printf_post_padding
    _printf_fp_dec.o(.text) refers to dtoi.o(i.__support_dtoi) for __support_dtoi
    _printf_fp_dec.o(.text) refers to istatus.o(x$fpl$ieeestatus) for __ieee_status
    _printf_fp_dec.o(.text) refers to bigflt0.o(.text) for _btod_etento
    _printf_fp_dec.o(.text) refers to btod.o(CL$$btod_d2e) for _btod_d2e
    _printf_fp_dec.o(.text) refers to btod.o(CL$$btod_ediv) for _btod_ediv
    _printf_fp_dec.o(.text) refers to btod.o(CL$$btod_emul) for _btod_emul
    _printf_fp_dec.o(.text) refers to lludiv10.o(.text) for _ll_udiv10
    _printf_fp_dec.o(.text) refers to classify.o(i.__mathlib_classify) for __mathlib_classify
    _printf_fp_dec.o(.text) refers to rtudiv10.o(.text) for __rt_udiv10
    _printf_fp_dec.o(.text) refers (Weak) to _printf_pad.o(.text) for _printf_pre_padding
    _printf_fp_dec.o(.text) refers to callvia.o(.text) for __ARM_call_via_r2
    _printf_fp_dec.o(.text) refers (Weak) to _printf_pad.o(.text) for _printf_pre_padding
    _printf_fp_dec.o(.text) refers to rt_locale_intlibspace.o(.text) for __rt_locale
    _printf_fp_dec.o(.text) refers (Weak) to _printf_pad.o(.text) for _printf_post_padding
    _printf_fp_dec.o(.text) refers (Special) to usenofp.o(x$fpl$usenofp) for __I_use_fp
    _printf_fp_dec.o(.text) refers (Special) to lc_numeric_c.o(locale$$code) for _get_lc_numeric
    _printf_char_common.o(.text) refers to __printf.o(.text) for __printf
    _printf_char_common.o(.text) refers to _printf_outstr_char.o(.text) for _printf_outstr_char
    _printf_char_common.o(.text) refers to _printf_input_char.o(.text) for _printf_input_char
    strtod.o(.text) refers to scanf1.o(x$fpl$scanf1) for _scanf_real
    strtod.o(.text) refers to sgetc.o(.text) for _sgetc
    strtod.o(.text) refers to isspace.o(.text) for isspace
    strtod.o(.text) refers (Special) to lc_numeric_c.o(locale$$code) for _get_lc_numeric
    strtol.o(.text) refers to rt_ctype_table.o(.text) for __rt_ctype_table
    strtol.o(.text) refers to _strtoul.o(.text) for _strtoul
    strtol.o(.text) refers to rt_errno_addr_intlibspace.o(.text) for __aeabi_errno_addr
    dcheck.o(x$fpl$dcheck) refers to retnan.o(x$fpl$retnan) for __fpl_return_NaN
    dcheck.o(x$fpl$dcheck) refers (Special) to usenofp.o(x$fpl$usenofp) for __I_use_fp
    dcheck1.o(x$fpl$dcheck1) refers to retnan.o(x$fpl$retnan) for __fpl_return_NaN
    dcheck1.o(x$fpl$dcheck1) refers (Special) to usenofp.o(x$fpl$usenofp) for __I_use_fp
    dcmpin.o(x$fpl$dcmpinfnan) refers to dcheck.o(x$fpl$dcheck) for __fpl_dcheck_NaN2
    dcmpin.o(x$fpl$dcmpinfnan) refers to trapv.o(x$fpl$trapveneer) for __fpl_cmpreturn
    dcmpin.o(x$fpl$dcmpinfnan) refers (Special) to usenofp.o(x$fpl$usenofp) for __I_use_fp
    dsqrt.o(x$fpl$dsqrt) refers to dcheck1.o(x$fpl$dcheck1) for __fpl_dcheck_NaN1
    dsqrt.o(x$fpl$dsqrt) refers (Special) to usenofp.o(x$fpl$usenofp) for __I_use_fp
    dunder.o(x$fpl$dunder) refers (Special) to usenofp.o(x$fpl$usenofp) for __I_use_fp
    fcheck.o(x$fpl$fcheck) refers to retnan.o(x$fpl$retnan) for __fpl_return_NaN
    fcheck.o(x$fpl$fcheck) refers (Special) to usenofp.o(x$fpl$usenofp) for __I_use_fp
    fcheck1.o(x$fpl$fcheck1) refers to retnan.o(x$fpl$retnan) for __fpl_return_NaN
    fcheck1.o(x$fpl$fcheck1) refers (Special) to usenofp.o(x$fpl$usenofp) for __I_use_fp
    fcmpin.o(x$fpl$dcmpinfnan) refers to fcheck.o(x$fpl$fcheck) for __fpl_fcheck_NaN2
    fcmpin.o(x$fpl$dcmpinfnan) refers to trapv.o(x$fpl$trapveneer) for __fpl_cmpreturn
    fcmpin.o(x$fpl$dcmpinfnan) refers (Special) to usenofp.o(x$fpl$usenofp) for __I_use_fp
    fnorm2_noclz.o(x$fpl$fnorm2) refers (Special) to usenofp.o(x$fpl$usenofp) for __I_use_fp
    funder.o(x$fpl$funder) refers (Special) to usenofp.o(x$fpl$usenofp) for __I_use_fp
    scalbn_noclz.o(x$fpl$scalbnl) refers to scalbn_noclz.o(x$fpl$scalbn) for scalbn
    scalbn_noclz.o(x$fpl$scalbnl) refers (Special) to usenofp.o(x$fpl$usenofp) for __I_use_fp
    scalbn_noclz.o(x$fpl$scalblnl) refers to scalbn_noclz.o(x$fpl$scalbn) for scalbn
    scalbn_noclz.o(x$fpl$scalblnl) refers (Special) to usenofp.o(x$fpl$usenofp) for __I_use_fp
    scalbn_noclz.o(x$fpl$scalbln) refers to scalbn_noclz.o(x$fpl$scalbn) for scalbn
    scalbn_noclz.o(x$fpl$scalbln) refers (Special) to usenofp.o(x$fpl$usenofp) for __I_use_fp
    scalbn_noclz.o(x$fpl$scalbn) refers to dcheck1.o(x$fpl$dcheck1) for __fpl_dcheck_NaN1
    scalbn_noclz.o(x$fpl$scalbn) refers (Special) to usenofp.o(x$fpl$usenofp) for __I_use_fp
    cos_i.o(i.__kernel_cos) refers to dfix.o(x$fpl$dfix) for __aeabi_d2iz
    cos_i.o(i.__kernel_cos) refers to dmul.o(x$fpl$dmul) for __aeabi_dmul
    cos_i.o(i.__kernel_cos) refers to poly.o(i.__kernel_poly) for __kernel_poly
    cos_i.o(i.__kernel_cos) refers to daddsub_noclz.o(x$fpl$dsub) for __aeabi_dsub
    cos_i.o(i.__kernel_cos) refers to scalbn_noclz.o(x$fpl$scalbn) for __ARM_scalbn
    cos_i.o(i.__kernel_cos) refers to daddsub_noclz.o(x$fpl$drsb) for __aeabi_drsub
    cos_i.o(i.__kernel_cos) refers to cos_i.o(.constdata) for .constdata
    cos_i.o(i.__kernel_cos) refers (Special) to usenofp.o(x$fpl$usenofp) for __I_use_fp
    cos_i.o(.constdata) refers (Special) to usenofp.o(x$fpl$usenofp) for __I_use_fp
    poly.o(i.__kernel_poly) refers to dmul.o(x$fpl$dmul) for __aeabi_dmul
    poly.o(i.__kernel_poly) refers to daddsub_noclz.o(x$fpl$dadd) for __aeabi_dadd
    poly.o(i.__kernel_poly) refers (Special) to usenofp.o(x$fpl$usenofp) for __I_use_fp
    rred.o(i.__ieee754_rem_pio2) refers to daddsub_noclz.o(x$fpl$dsub) for __aeabi_dsub
    rred.o(i.__ieee754_rem_pio2) refers to daddsub_noclz.o(x$fpl$dadd) for __aeabi_dadd
    rred.o(i.__ieee754_rem_pio2) refers to dmul.o(x$fpl$dmul) for __aeabi_dmul
    rred.o(i.__ieee754_rem_pio2) refers to dfix.o(x$fpl$dfix) for __aeabi_d2iz
    rred.o(i.__ieee754_rem_pio2) refers to dflt_noclz.o(x$fpl$dflt) for __aeabi_i2d
    rred.o(i.__ieee754_rem_pio2) refers to daddsub_noclz.o(x$fpl$drsb) for __aeabi_drsub
    rred.o(i.__ieee754_rem_pio2) refers to aeabi_sdiv.o(.text_udiv) for __aeabi_uidivmod
    rred.o(i.__ieee754_rem_pio2) refers to rred.o(.constdata) for .constdata
    rred.o(i.__ieee754_rem_pio2) refers to drem.o(x$fpl$drem) for _drem
    rred.o(i.__ieee754_rem_pio2) refers to ddiv.o(x$fpl$ddiv) for __aeabi_ddiv
    rred.o(i.__ieee754_rem_pio2) refers to scalbn_noclz.o(x$fpl$scalbn) for __ARM_scalbn
    rred.o(i.__ieee754_rem_pio2) refers (Special) to usenofp.o(x$fpl$usenofp) for __I_use_fp
    rred.o(.constdata) refers (Special) to usenofp.o(x$fpl$usenofp) for __I_use_fp
    sin_i.o(i.__kernel_sin) refers to dfix.o(x$fpl$dfix) for __aeabi_d2iz
    sin_i.o(i.__kernel_sin) refers to dmul.o(x$fpl$dmul) for __aeabi_dmul
    sin_i.o(i.__kernel_sin) refers to poly.o(i.__kernel_poly) for __kernel_poly
    sin_i.o(i.__kernel_sin) refers to daddsub_noclz.o(x$fpl$dadd) for __aeabi_dadd
    sin_i.o(i.__kernel_sin) refers to scalbn_noclz.o(x$fpl$scalbn) for __ARM_scalbn
    sin_i.o(i.__kernel_sin) refers to daddsub_noclz.o(x$fpl$dsub) for __aeabi_dsub
    sin_i.o(i.__kernel_sin) refers to daddsub_noclz.o(x$fpl$drsb) for __aeabi_drsub
    sin_i.o(i.__kernel_sin) refers to sin_i.o(.constdata) for .constdata
    sin_i.o(i.__kernel_sin) refers (Special) to usenofp.o(x$fpl$usenofp) for __I_use_fp
    sin_i.o(.constdata) refers (Special) to usenofp.o(x$fpl$usenofp) for __I_use_fp
    tan_i.o(i.__kernel_tan) refers to dfix.o(x$fpl$dfix) for __aeabi_d2iz
    tan_i.o(i.__kernel_tan) refers to ddiv.o(x$fpl$ddiv) for __aeabi_ddiv
    tan_i.o(i.__kernel_tan) refers to daddsub_noclz.o(x$fpl$drsb) for __aeabi_drsub
    tan_i.o(i.__kernel_tan) refers to daddsub_noclz.o(x$fpl$dsub) for __aeabi_dsub
    tan_i.o(i.__kernel_tan) refers to daddsub_noclz.o(x$fpl$dadd) for __aeabi_dadd
    tan_i.o(i.__kernel_tan) refers to dmul.o(x$fpl$dmul) for __aeabi_dmul
    tan_i.o(i.__kernel_tan) refers to poly.o(i.__kernel_poly) for __kernel_poly
    tan_i.o(i.__kernel_tan) refers to dflt_noclz.o(x$fpl$dflt) for __aeabi_i2d
    tan_i.o(i.__kernel_tan) refers to scalbn_noclz.o(x$fpl$scalbn) for __ARM_scalbn
    tan_i.o(i.__kernel_tan) refers to tan_i.o(.constdata) for .constdata
    tan_i.o(i.__kernel_tan) refers (Special) to usenofp.o(x$fpl$usenofp) for __I_use_fp
    tan_i.o(.constdata) refers (Special) to usenofp.o(x$fpl$usenofp) for __I_use_fp
    sys_exit.o(.text) refers to use_no_semi.o(.text) for __I_use_semihosting
    libspace.o(.text) refers to libspace.o(.bss) for __libspace_start
    rt_div0.o(.text) refers to defsig_fpe_outer.o(.text) for __rt_SIGFPE
    rt_ctype_table.o(.text) refers to rt_locale_intlibspace.o(.text) for __rt_locale
    rt_ctype_table.o(.text) refers to lc_ctype_c.o(locale$$code) for _get_lc_ctype
    rt_locale.o(.text) refers to rt_locale.o(.bss) for __rt_locale_data
    rt_locale_intlibspace.o(.text) refers to libspace.o(.bss) for __libspace_start
    isspace.o(.text) refers to rt_ctype_table.o(.text) for __rt_ctype_table
    bigflt0.o(.text) refers to aeabi_sdiv.o(.text) for __aeabi_idivmod
    bigflt0.o(.text) refers to btod.o(CL$$btod_emul) for _btod_emul
    bigflt0.o(.text) refers to btod.o(CL$$btod_ediv) for _btod_ediv
    bigflt0.o(.text) refers to bigflt0.o(.constdata) for .constdata
    bigflt0.o(.text) refers (Special) to usenofp.o(x$fpl$usenofp) for __I_use_fp
    bigflt0.o(.constdata) refers (Special) to usenofp.o(x$fpl$usenofp) for __I_use_fp
    btod.o(CL$$btod_d2e) refers to btod.o(CL$$btod_d2e_norm_op1) for _d2e_norm_op1
    btod.o(CL$$btod_d2e) refers (Special) to usenofp.o(x$fpl$usenofp) for __I_use_fp
    btod.o(CL$$btod_d2e_norm_op1) refers to btod.o(CL$$btod_d2e_denorm_low) for _d2e_denorm_low
    btod.o(CL$$btod_d2e_norm_op1) refers (Special) to usenofp.o(x$fpl$usenofp) for __I_use_fp
    btod.o(CL$$btod_d2e_denorm_low) refers (Special) to usenofp.o(x$fpl$usenofp) for __I_use_fp
    btod.o(CL$$btod_emul) refers to btod.o(CL$$btod_mult_common) for __btod_mult_common
    btod.o(CL$$btod_emul) refers to btod.o(CL$$btod_e2e) for _e2e
    btod.o(CL$$btod_emul) refers (Special) to usenofp.o(x$fpl$usenofp) for __I_use_fp
    btod.o(CL$$btod_ediv) refers to btod.o(CL$$btod_div_common) for __btod_div_common
    btod.o(CL$$btod_ediv) refers to btod.o(CL$$btod_e2e) for _e2e
    btod.o(CL$$btod_ediv) refers (Special) to usenofp.o(x$fpl$usenofp) for __I_use_fp
    btod.o(CL$$btod_emuld) refers to btod.o(CL$$btod_mult_common) for __btod_mult_common
    btod.o(CL$$btod_emuld) refers to btod.o(CL$$btod_e2d) for _e2d
    btod.o(CL$$btod_emuld) refers (Special) to usenofp.o(x$fpl$usenofp) for __I_use_fp
    btod.o(CL$$btod_edivd) refers to btod.o(CL$$btod_div_common) for __btod_div_common
    btod.o(CL$$btod_edivd) refers to btod.o(CL$$btod_e2d) for _e2d
    btod.o(CL$$btod_edivd) refers (Special) to usenofp.o(x$fpl$usenofp) for __I_use_fp
    btod.o(CL$$btod_e2e) refers (Special) to usenofp.o(x$fpl$usenofp) for __I_use_fp
    btod.o(CL$$btod_e2d) refers to btod.o(CL$$btod_e2e) for _e2e
    btod.o(CL$$btod_e2d) refers (Special) to usenofp.o(x$fpl$usenofp) for __I_use_fp
    btod.o(CL$$btod_mult_common) refers (Special) to usenofp.o(x$fpl$usenofp) for __I_use_fp
    btod.o(CL$$btod_div_common) refers (Special) to usenofp.o(x$fpl$usenofp) for __I_use_fp
    _printf_outstr_char.o(.text) refers to callvia.o(.text) for __ARM_call_via_r2
    _strtoul.o(.text) refers to _chval.o(.text) for _chval
    _strtoul.o(.text) refers to rt_errno_addr_intlibspace.o(.text) for __aeabi_errno_addr
    lc_numeric_c.o(locale$$code) refers to strcmp.o(.text) for strcmp
    lc_numeric_c.o(locale$$code) refers to lc_numeric_c.o(locale$$data) for __lcnum_c_name
    exit.o(.text) refers to kernel.o(.text) for __rt_exit
    stkheap1.o(.text) refers to sys_stackheap_outer.o(.text) for __user_setup_stackheap
    stkheap1.o(.text) refers to rt_stackheap_storage_intlibspace.o(.text) for __rt_stackheap_storage
    lib_init.o(.emb_text) refers to no_argv.o(.text) for __ARM_get_argv
    lib_init.o(.text) refers to fpinit.o(x$fpl$fpinit) for _fp_init
    lib_init.o(.text) refers to lib_init.o(.emb_text) for __ARM_argv_veneer
    lib_init.o(.text) refers to rt_locale_intlibspace.o(.text) for __rt_locale
    lib_init.o(.text) refers (Weak) to lc_ctype_c.o(locale$$code) for _get_lc_ctype
    lib_init.o(.text) refers (Weak) to lc_numeric_c.o(locale$$code) for _get_lc_numeric
    retnan.o(x$fpl$retnan) refers to trapv.o(x$fpl$trapveneer) for __fpl_cmpreturn
    retnan.o(x$fpl$retnan) refers (Special) to usenofp.o(x$fpl$usenofp) for __I_use_fp
    trapv.o(x$fpl$trapveneer) refers (Special) to usenofp.o(x$fpl$usenofp) for __I_use_fp
    drem.o(x$fpl$drem) refers to dcheck.o(x$fpl$dcheck) for __fpl_dcheck_NaN2
    drem.o(x$fpl$drem) refers (Special) to usenofp.o(x$fpl$usenofp) for __I_use_fp
    drem.o(x$fpl$drem) refers (Special) to dunder.o(x$fpl$dunder) for __dunder_d
    istatus.o(x$fpl$ieeestatus) refers (Special) to usenofp.o(x$fpl$usenofp) for __I_use_fp
    scanf1.o(x$fpl$scanf1) refers to scanf_fp.o(.text) for _scanf_really_real
    scanf1.o(x$fpl$scanf1) refers (Special) to usenofp.o(x$fpl$usenofp) for __I_use_fp
    classify.o(i.__mathlib_classify) refers to fpclassify.o(i.__ARM_fpclassify) for __ARM_fpclassify
    classify.o(i.__mathlib_classify) refers (Special) to usenofp.o(x$fpl$usenofp) for __I_use_fp
    dtoi.o(i.__support_dtoi) refers to scalbn_noclz.o(x$fpl$scalbn) for __ARM_scalbn
    dtoi.o(i.__support_dtoi) refers (Special) to usenofp.o(x$fpl$usenofp) for __I_use_fp
    scanf_fp.o(.text) refers to llmullu.o(.text) for __ARM_ll_mullu
    scanf_fp.o(.text) refers to istatus.o(x$fpl$ieeestatus) for __ieee_status
    scanf_fp.o(.text) refers to dtoi.o(i.__support_dtoi) for __support_dtoi
    scanf_fp.o(.text) refers to itod.o(i.__support_itod) for __support_itod
    scanf_fp.o(.text) refers to rt_errno_addr_intlibspace.o(.text) for __aeabi_errno_addr
    scanf_fp.o(.text) refers to bigflt0.o(.text) for _btod_etento
    scanf_fp.o(.text) refers to btod.o(CL$$btod_emuld) for _btod_emuld
    scanf_fp.o(.text) refers to btod.o(CL$$btod_edivd) for _btod_edivd
    scanf_fp.o(.text) refers to rt_locale_intlibspace.o(.text) for __rt_locale
    scanf_fp.o(.text) refers to callvia.o(.text) for __ARM_call_via_r1
    scanf_fp.o(.text) refers to scanf2.o(x$fpl$scanf2) for _scanf_infnan
    scanf_fp.o(.text) refers to fpconst.o(c$$dinf) for __huge_val
    scanf_fp.o(.text) refers to narrow.o(i.__mathlib_narrow) for __mathlib_narrow
    scanf_fp.o(.text) refers (Special) to usenofp.o(x$fpl$usenofp) for __I_use_fp
    scanf_fp.o(.text) refers (Special) to lc_numeric_c.o(locale$$code) for _get_lc_numeric
    lc_ctype_c.o(locale$$code) refers to strcmp.o(.text) for strcmp
    lc_ctype_c.o(locale$$code) refers to lc_ctype_c.o(locale$$data) for __lcctype_c_name
    defsig_fpe_outer.o(.text) refers to defsig_fpe_inner.o(.text) for __rt_SIGFPE_inner
    defsig_fpe_outer.o(.text) refers to defsig_exit.o(.text) for __sig_exit
    defsig_fpe_formal.o(.text) refers to rt_raise.o(.text) for __rt_raise
    defsig_fpe_formal.o(.text) refers (Special) to defsig_fpe_inner.o(.text) for __rt_SIGFPE_inner
    _get_argv.o(.text) refers to heapext.o(.text) for __heap_extend
    _get_argv.o(.text) refers to defsig_rtmem_outer.o(.text) for __rt_SIGRTMEM
    _get_argv.o(.text) refers to sys_command.o(.text) for _sys_command_string
    _get_argv.o(.text) refers (Special) to hrguard.o(.text) for __heap_region_guard
    fpinit.o(x$fpl$fpinit) refers to rt_fp_status_addr_intlibspace.o(.text) for __rt_fp_status_addr
    fpclassify.o(i.__ARM_fpclassify) refers (Special) to usenofp.o(x$fpl$usenofp) for __I_use_fp
    sys_command.o(.text) refers (Special) to use_no_semi.o(.text) for __I_use_semihosting
    rt_raise.o(.text) refers to __raise.o(.text) for __raise
    rt_raise.o(.text) refers to sys_exit.o(.text) for _sys_exit
    rt_fp_status_addr.o(.text) refers to rt_fp_status_addr.o(.bss) for __rt_fp_status_addr_data
    rt_fp_status_addr_intlibspace.o(.text) refers to libspace.o(.bss) for __libspace_start
    defsig_exit.o(.text) refers to sys_exit.o(.text) for _sys_exit
    defsig_fpe_inner.o(.text) refers to defsig_general.o(.text) for __default_signal_display
    defsig_rtmem_outer.o(.text) refers to defsig_rtmem_inner.o(.text) for __rt_SIGRTMEM_inner
    defsig_rtmem_outer.o(.text) refers to defsig_exit.o(.text) for __sig_exit
    defsig_rtmem_formal.o(.text) refers to rt_raise.o(.text) for __rt_raise
    defsig_rtmem_formal.o(.text) refers (Special) to defsig_rtmem_inner.o(.text) for __rt_SIGRTMEM_inner
    heapext.o(.text) refers to stkheap2.o(.text) for __rt_heap_extend
    fpconst.o(c$$dinf) refers (Special) to usenofp.o(x$fpl$usenofp) for __I_use_fp
    fpconst.o(c$$dnan) refers (Special) to usenofp.o(x$fpl$usenofp) for __I_use_fp
    fpconst.o(c$$finf) refers (Special) to usenofp.o(x$fpl$usenofp) for __I_use_fp
    fpconst.o(c$$fnan) refers (Special) to usenofp.o(x$fpl$usenofp) for __I_use_fp
    scanf2.o(x$fpl$scanf2) refers to scanf_hexfp.o(.text) for _scanf_really_hex_real
    scanf2.o(x$fpl$scanf2) refers (Special) to usenofp.o(x$fpl$usenofp) for __I_use_fp
    scanf2a.o(x$fpl$scanf2) refers (Special) to usenofp.o(x$fpl$usenofp) for __I_use_fp
    scanf2b.o(x$fpl$scanf2) refers to scanf_hexfp.o(.text) for _scanf_really_hex_real
    scanf2b.o(x$fpl$scanf2) refers (Special) to usenofp.o(x$fpl$usenofp) for __I_use_fp
    llmullu.o(.text) refers to llmul.o(.text) for __aeabi_lmul
    itod.o(i.__support_itod) refers (Special) to usenofp.o(x$fpl$usenofp) for __I_use_fp
    narrow.o(i.__mathlib_tofloat) refers to frexp.o(i.frexp) for frexp
    narrow.o(i.__mathlib_tofloat) refers to deqf.o(x$fpl$deqf) for __aeabi_cdcmpeq
    narrow.o(i.__mathlib_tofloat) refers to d2f.o(x$fpl$d2f) for __aeabi_d2f
    narrow.o(i.__mathlib_tofloat) refers to _rserrno.o(.text) for __set_errno
    narrow.o(i.__mathlib_tofloat) refers to drleqf.o(x$fpl$drleqf) for __aeabi_cdrcmple
    narrow.o(i.__mathlib_tofloat) refers (Special) to usenofp.o(x$fpl$usenofp) for __I_use_fp
    narrow.o(i.__softfp___mathlib_tofloat) refers to narrow.o(i.__mathlib_tofloat) for __mathlib_tofloat
    narrow.o(i.__softfp___mathlib_tofloat) refers (Special) to usenofp.o(x$fpl$usenofp) for __I_use_fp
    narrow.o(i.__mathlib_narrow) refers to narrow.o(i.__mathlib_tofloat) for __mathlib_tofloat
    narrow.o(i.__mathlib_narrow) refers (Special) to usenofp.o(x$fpl$usenofp) for __I_use_fp
    scanf_hexfp.o(.text) refers to callvia.o(.text) for __ARM_call_via_r1
    scanf_hexfp.o(.text) refers to _chval.o(.text) for _chval
    scanf_hexfp.o(.text) refers to llshl.o(.text) for __aeabi_llsl
    scanf_hexfp.o(.text) refers to istatus.o(x$fpl$ieeestatus) for __ieee_status
    scanf_hexfp.o(.text) refers to itod.o(i.__support_itod) for __support_itod
    scanf_hexfp.o(.text) refers to ldexp.o(i.__support_ldexp) for __support_ldexp
    scanf_hexfp.o(.text) refers to narrow.o(i.__mathlib_narrow) for __mathlib_narrow
    __raise.o(.text) refers to defsig.o(CL$$defsig) for __default_signal_handler
    __raise.o(.text) refers to callvia.o(.text) for __ARM_call_via_r2
    defsig_general.o(.text) refers to sys_wrch.o(.text) for _ttywrch
    defsig_rtmem_inner.o(.text) refers to defsig_general.o(.text) for __default_signal_display
    frexp.o(i.frexp) refers to scalbn_noclz.o(x$fpl$scalbn) for __ARM_scalbn
    frexp.o(i.frexp) refers (Special) to usenofp.o(x$fpl$usenofp) for __I_use_fp
    frexp.o(i.__softfp_frexp) refers to frexp.o(i.frexp) for frexp
    frexp.o(i.__softfp_frexp) refers (Special) to usenofp.o(x$fpl$usenofp) for __I_use_fp
    sys_wrch.o(.text) refers (Special) to use_no_semi.o(.text) for __I_use_semihosting
    defsig.o(CL$$defsig) refers (Weak) to defsig_fpe_inner.o(.text) for __rt_SIGFPE_inner
    defsig.o(CL$$defsig) refers (Weak) to defsig_rtmem_inner.o(.text) for __rt_SIGRTMEM_inner
    ldexp.o(i.ldexp) refers to ldexp.o(i.__ARM_isfinite) for __ARM_isfinite
    ldexp.o(i.ldexp) refers to deqf.o(x$fpl$deqf) for __aeabi_cdcmpeq
    ldexp.o(i.ldexp) refers to scalbn_noclz.o(x$fpl$scalbn) for __ARM_scalbn
    ldexp.o(i.ldexp) refers to _rserrno.o(.text) for __set_errno
    ldexp.o(i.ldexp) refers to qnan.o(.constdata) for __mathlib_zero
    ldexp.o(i.ldexp) refers (Special) to usenofp.o(x$fpl$usenofp) for __I_use_fp
    ldexp.o(i.__softfp_ldexp) refers to ldexp.o(i.ldexp) for ldexp
    ldexp.o(i.__softfp_ldexp) refers (Special) to usenofp.o(x$fpl$usenofp) for __I_use_fp
    ldexp.o(i.__support_ldexp) refers to ldexp.o(i.ldexp) for ldexp
    ldexp.o(i.__support_ldexp) refers (Special) to usenofp.o(x$fpl$usenofp) for __I_use_fp
    ldexp.o(i.__ARM_isfinite) refers (Special) to usenofp.o(x$fpl$usenofp) for __I_use_fp
    qnan.o(.constdata) refers (Special) to usenofp.o(x$fpl$usenofp) for __I_use_fp


================================================================================

Adding Veneers to the image

    Adding AT veneer (12 bytes, Long) for call to '_scanf_really_infnan' from scanf2.o(x$fpl$scanf2).
    Adding AT veneer (12 bytes, Long) for call to '_scanf_really_real' from scanf1.o(x$fpl$scanf1).
    Adding AT veneer (12 bytes, Long) for call to '_printf_fp_dec_real' from printf1.o(x$fpl$printf1).
    Adding AT veneer (12 bytes, Long) for call to '__read_errno' from atof.o(i.atof).
    Adding TA veneer (8 bytes, Short) for call to '_scanf_infnan' from scanf_fp.o(.text).
    Adding TA veneer (8 bytes, Short) for call to '__rt_exit' from exit.o(.text).
    Adding AT veneer (12 bytes, Long) for call to '__rt_lib_shutdown' from kernel.o(.text).
    Adding TA veneer (4 bytes, Inline) for call to '_scanf_hex_real' from scanf_fp.o(.text).
    Adding TA veneer (4 bytes, Inline) for call to '_scanf_real' from strtod.o(.text).
    Adding TA veneer (4 bytes, Inline) for call to '_printf_fp_dec' from __printf.o(.text).
    Adding TA veneer (4 bytes, Inline) for call to '__ieee_status' from _printf_fp_dec.o(.text).
    Adding TA veneer (4 bytes, Inline) for call to '_fp_init' from lib_init.o(.text).
    Adding TA veneer (4 bytes, Inline) for call to '_get_lc_ctype' from lib_init.o(.text).
    Adding TA veneer (4 bytes, Inline) for call to '_get_lc_numeric' from lib_init.o(.text).
    Adding TA veneer (4 bytes, Inline) for call to '__support_ldexp' from scanf_hexfp.o(.text).
    Adding TA veneer (4 bytes, Inline) for call to '__support_itod' from scanf_fp.o(.text).
    Adding TA veneer (4 bytes, Inline) for call to '__support_dtoi' from _printf_fp_dec.o(.text).
    Adding TA veneer (4 bytes, Inline) for call to '__mathlib_narrow' from scanf_fp.o(.text).
    Adding TA veneer (4 bytes, Inline) for call to '__mathlib_classify' from _printf_fp_dec.o(.text).
    Adding TA veneer (4 bytes, Inline) for call to '_btod_emuld' from scanf_fp.o(.text).
    Adding TA veneer (4 bytes, Inline) for call to '_btod_emul' from _printf_fp_dec.o(.text).
    Adding TA veneer (4 bytes, Inline) for call to '_btod_edivd' from scanf_fp.o(.text).
    Adding TA veneer (4 bytes, Inline) for call to '_btod_ediv' from _printf_fp_dec.o(.text).
    Adding TA veneer (4 bytes, Inline) for call to '_btod_d2e' from _printf_fp_dec.o(.text).
    Adding TA veneer (4 bytes, Inline) for call to '__aeabi_llsl' from scanf_hexfp.o(.text).
    Adding AT veneer (8 bytes, Inline) for call to '_scanf_really_hex_real' from scanf2.o(x$fpl$scanf2).
    Adding TA veneer (4 bytes, Inline) for call to '__ARM_ll_mullu' from scanf_fp.o(.text).
    Adding AT veneer (8 bytes, Inline) for call to '__rt_lib_init' from kernel.o(.text).
    Adding TA veneer (4 bytes, Inline) for call to '_ll_udiv10' from _printf_fp_dec.o(.text).
    Adding TA veneer (4 bytes, Inline) for call to '__rt_locale' from _printf_fp_dec.o(.text).
    Adding TA veneer (4 bytes, Inline) for call to '__rt_ctype_table' from strtol.o(.text).
    Adding TA veneer (4 bytes, Inline) for call to '__rt_udiv10' from _printf_dec.o(.text).
    Adding AT veneer (8 bytes, Inline) for call to '__strtod_int' from atof.o(i.atof).
    Adding AT veneer (8 bytes, Inline) for call to '__set_errno' from narrow.o(i.__mathlib_tofloat).
    Adding TA veneer (4 bytes, Inline) for call to '__aeabi_lmul' from _scanf_longlong.o(.text).
    Adding TA veneer (4 bytes, Inline) for call to '__aeabi_errno_addr' from atoi.o(.text).
    Adding TA veneer (4 bytes, Inline) for call to '__aeabi_idivmod' from bigflt0.o(.text).
    Adding AT veneer (8 bytes, Inline) for call to 'strlen' from main.o(.text).
    Adding AT veneer (8 bytes, Inline) for call to 'atoi' from main.o(.text).
    Adding AT veneer (8 bytes, Inline) for call to '__1sprintf' from main.o(.text).
    Adding TA veneer (4 bytes, Inline) for call to '__ARM_argv_veneer' from lib_init.o(.text).

41 Veneer(s) (total 240 bytes) added to the image.

================================================================================

Image Symbol Table

    Local Symbols

    Symbol Name                              Value     Ov Type        Size  Object(Section)

    RESET                                    0x00000000   Section      288  startup.o(RESET)
    ../../acos.c                             0x00000000   Number         0  acos.o ABSOLUTE
    ../../angel/boardlib.s                   0x00000000   Number         0  boardinit1.o ABSOLUTE
    ../../angel/boardlib.s                   0x00000000   Number         0  boardinit3.o ABSOLUTE
    ../../angel/boardlib.s                   0x00000000   Number         0  cpuinit.o ABSOLUTE
    ../../angel/boardlib.s                   0x00000000   Number         0  boardinit2.o ABSOLUTE
    ../../angel/boardlib.s                   0x00000000   Number         0  boardshut.o ABSOLUTE
    ../../angel/dclz77c.s                    0x00000000   Number         0  __dclz77c.o ABSOLUTE
    ../../angel/handlers.s                   0x00000000   Number         0  __scatter_zi.o ABSOLUTE
    ../../angel/kernel.s                     0x00000000   Number         0  kernel.o ABSOLUTE
    ../../angel/rt.s                         0x00000000   Number         0  rt_fp_status_addr.o ABSOLUTE
    ../../angel/rt.s                         0x00000000   Number         0  rt_ctype_table.o ABSOLUTE
    ../../angel/rt.s                         0x00000000   Number         0  rt_stackheap_storage_intlibspace.o ABSOLUTE
    ../../angel/rt.s                         0x00000000   Number         0  rt_div0.o ABSOLUTE
    ../../angel/rt.s                         0x00000000   Number         0  rt_stackheap_storage.o ABSOLUTE
    ../../angel/rt.s                         0x00000000   Number         0  rt_errno_addr.o ABSOLUTE
    ../../angel/rt.s                         0x00000000   Number         0  aeabi_idiv0.o ABSOLUTE
    ../../angel/rt.s                         0x00000000   Number         0  aeabi_idiv0_sigfpe.o ABSOLUTE
    ../../angel/rt.s                         0x00000000   Number         0  rt_fp_status_addr_intlibspace.o ABSOLUTE
    ../../angel/rt.s                         0x00000000   Number         0  rt_raise.o ABSOLUTE
    ../../angel/rt.s                         0x00000000   Number         0  rt_locale_intlibspace.o ABSOLUTE
    ../../angel/rt.s                         0x00000000   Number         0  rt_errno_addr_intlibspace.o ABSOLUTE
    ../../angel/rt.s                         0x00000000   Number         0  rt_locale.o ABSOLUTE
    ../../angel/scatter.s                    0x00000000   Number         0  __scatter.o ABSOLUTE
    ../../angel/startup.s                    0x00000000   Number         0  __main.o ABSOLUTE
    ../../angel/sys.s                        0x00000000   Number         0  use_no_semi.o ABSOLUTE
    ../../angel/sys.s                        0x00000000   Number         0  libspace.o ABSOLUTE
    ../../angel/sys.s                        0x00000000   Number         0  sys_stackheap_outer.o ABSOLUTE
    ../../angel/sys.s                        0x00000000   Number         0  sys_exit.o ABSOLUTE
    ../../angel/sysapp.c                     0x00000000   Number         0  sys_wrch.o ABSOLUTE
    ../../angel/sysapp.c                     0x00000000   Number         0  sys_command.o ABSOLUTE
    ../../armsys.c                           0x00000000   Number         0  lib_init.o ABSOLUTE
    ../../armsys.c                           0x00000000   Number         0  no_argv.o ABSOLUTE
    ../../armsys.c                           0x00000000   Number         0  _get_argv.o ABSOLUTE
    ../../armsys.c                           0x00000000   Number         0  lib_init.o ABSOLUTE
    ../../asin.c                             0x00000000   Number         0  asin.o ABSOLUTE
    ../../atan.c                             0x00000000   Number         0  atan.o ABSOLUTE
    ../../atof.c                             0x00000000   Number         0  atof.o ABSOLUTE
    ../../bigflt.c                           0x00000000   Number         0  bigflt0.o ABSOLUTE
    ../../btod.s                             0x00000000   Number         0  btod.o ABSOLUTE
    ../../classify.c                         0x00000000   Number         0  classify.o ABSOLUTE
    ../../cos.c                              0x00000000   Number         0  cos.o ABSOLUTE
    ../../cos_i.c                            0x00000000   Number         0  cos_i.o ABSOLUTE
    ../../ctype.c                            0x00000000   Number         0  isspace.o ABSOLUTE
    ../../d2f.s                              0x00000000   Number         0  d2f.o ABSOLUTE
    ../../daddsub.s                          0x00000000   Number         0  daddsub_noclz.o ABSOLUTE
    ../../dcheck.s                           0x00000000   Number         0  dcheck.o ABSOLUTE
    ../../dcheck1.s                          0x00000000   Number         0  dcheck1.o ABSOLUTE
    ../../dcmpin.s                           0x00000000   Number         0  dcmpin.o ABSOLUTE
    ../../ddiv.s                             0x00000000   Number         0  ddiv.o ABSOLUTE
    ../../deqf.s                             0x00000000   Number         0  deqf.o ABSOLUTE
    ../../dfix.s                             0x00000000   Number         0  dfix.o ABSOLUTE
    ../../dflt.s                             0x00000000   Number         0  dflt_noclz.o ABSOLUTE
    ../../division.s                         0x00000000   Number         0  aeabi_sdiv_div0.o ABSOLUTE
    ../../division.s                         0x00000000   Number         0  rtudiv10.o ABSOLUTE
    ../../division.s                         0x00000000   Number         0  aeabi_sdiv.o ABSOLUTE
    ../../divrt.s                            0x00000000   Number         0  divrt_7tdmi_div0.o ABSOLUTE
    ../../divrt.s                            0x00000000   Number         0  divrt_7tdmi.o ABSOLUTE
    ../../dleqf.s                            0x00000000   Number         0  dleqf.o ABSOLUTE
    ../../dmul.s                             0x00000000   Number         0  dmul.o ABSOLUTE
    ../../drem.s                             0x00000000   Number         0  drem.o ABSOLUTE
    ../../drleqf.s                           0x00000000   Number         0  drleqf.o ABSOLUTE
    ../../dsqrt.s                            0x00000000   Number         0  dsqrt.o ABSOLUTE
    ../../dtoi.c                             0x00000000   Number         0  dtoi.o ABSOLUTE
    ../../dunder.s                           0x00000000   Number         0  dunder.o ABSOLUTE
    ../../f2d.s                              0x00000000   Number         0  f2d.o ABSOLUTE
    ../../faddsub.s                          0x00000000   Number         0  faddsub_noclz.o ABSOLUTE
    ../../fcheck.s                           0x00000000   Number         0  fcheck.o ABSOLUTE
    ../../fcheck1.s                          0x00000000   Number         0  fcheck1.o ABSOLUTE
    ../../fcmpin.s                           0x00000000   Number         0  fcmpin.o ABSOLUTE
    ../../fdiv.s                             0x00000000   Number         0  fdiv.o ABSOLUTE
    ../../fenv.c                             0x00000000   Number         0  _rserrno.o ABSOLUTE
    ../../feqf.s                             0x00000000   Number         0  feqf.o ABSOLUTE
    ../../ffix.s                             0x00000000   Number         0  ffix.o ABSOLUTE
    ../../ffixu.s                            0x00000000   Number         0  ffixu.o ABSOLUTE
    ../../fflt.s                             0x00000000   Number         0  fflt_noclz.o ABSOLUTE
    ../../fleqf.s                            0x00000000   Number         0  fleqf.o ABSOLUTE
    ../../fmul.s                             0x00000000   Number         0  fmul.o ABSOLUTE
    ../../fnorm2.s                           0x00000000   Number         0  fnorm2_noclz.o ABSOLUTE
    ../../fpclassify.c                       0x00000000   Number         0  fpclassify.o ABSOLUTE
    ../../fpconst.s                          0x00000000   Number         0  fpconst.o ABSOLUTE
    ../../fpinit.s                           0x00000000   Number         0  fpinit.o ABSOLUTE
    ../../frexp.c                            0x00000000   Number         0  frexp.o ABSOLUTE
    ../../frleqf.s                           0x00000000   Number         0  frleqf.o ABSOLUTE
    ../../funder.s                           0x00000000   Number         0  funder.o ABSOLUTE
    ../../heapalloc.c                        0x00000000   Number         0  hrguard.o ABSOLUTE
    ../../istatus.s                          0x00000000   Number         0  istatus.o ABSOLUTE
    ../../itod.c                             0x00000000   Number         0  itod.o ABSOLUTE
    ../../ldexp.c                            0x00000000   Number         0  ldexp.o ABSOLUTE
    ../../locale.s                           0x00000000   Number         0  lc_ctype_c.o ABSOLUTE
    ../../locale.s                           0x00000000   Number         0  lc_numeric_c.o ABSOLUTE
    ../../longlong.s                         0x00000000   Number         0  llmullu.o ABSOLUTE
    ../../longlong.s                         0x00000000   Number         0  lludiv10.o ABSOLUTE
    ../../longlong.s                         0x00000000   Number         0  llmul.o ABSOLUTE
    ../../longlong.s                         0x00000000   Number         0  llshl.o ABSOLUTE
    ../../memcpset.s                         0x00000000   Number         0  strcmp.o ABSOLUTE
    ../../memcpset.s                         0x00000000   Number         0  rt_memcpy_w.o ABSOLUTE
    ../../narrow.c                           0x00000000   Number         0  narrow.o ABSOLUTE
    ../../poly.c                             0x00000000   Number         0  poly.o ABSOLUTE
    ../../printf.c                           0x00000000   Number         0  __printf.o ABSOLUTE
    ../../printf.c                           0x00000000   Number         0  _printf_outstr_char.o ABSOLUTE
    ../../printf.c                           0x00000000   Number         0  _printf_fp_dec.o ABSOLUTE
    ../../printf.c                           0x00000000   Number         0  _printf_pad.o ABSOLUTE
    ../../printf.c                           0x00000000   Number         0  _printf_intcommon.o ABSOLUTE
    ../../printf.c                           0x00000000   Number         0  _printf_dec.o ABSOLUTE
    ../../printf.c                           0x00000000   Number         0  _printf_input_char.o ABSOLUTE
    ../../printf.c                           0x00000000   Number         0  __0sprintf.o ABSOLUTE
    ../../printf.c                           0x00000000   Number         0  _printf_char_common.o ABSOLUTE
    ../../printf.c                           0x00000000   Number         0  _sputc.o ABSOLUTE
    ../../printf1.s                          0x00000000   Number         0  printf1.o ABSOLUTE
    ../../qnan.c                             0x00000000   Number         0  qnan.o ABSOLUTE
    ../../retnan.s                           0x00000000   Number         0  retnan.o ABSOLUTE
    ../../rred.c                             0x00000000   Number         0  rred.o ABSOLUTE
    ../../scalbn.s                           0x00000000   Number         0  scalbn_noclz.o ABSOLUTE
    ../../scanf.c                            0x00000000   Number         0  strtod.o ABSOLUTE
    ../../scanf.c                            0x00000000   Number         0  strtol.o ABSOLUTE
    ../../scanf.c                            0x00000000   Number         0  _chval.o ABSOLUTE
    ../../scanf.c                            0x00000000   Number         0  scanf_fp.o ABSOLUTE
    ../../scanf.c                            0x00000000   Number         0  _strtoul.o ABSOLUTE
    ../../scanf.c                            0x00000000   Number         0  scanf_hexfp.o ABSOLUTE
    ../../scanf.c                            0x00000000   Number         0  _scanf_longlong.o ABSOLUTE
    ../../scanf.c                            0x00000000   Number         0  sgetc.o ABSOLUTE
    ../../scanf.c                            0x00000000   Number         0  atoi.o ABSOLUTE
    ../../scanf1.s                           0x00000000   Number         0  scanf1.o ABSOLUTE
    ../../scanf2.s                           0x00000000   Number         0  scanf2.o ABSOLUTE
    ../../scanf2a.s                          0x00000000   Number         0  scanf2a.o ABSOLUTE
    ../../scanf2b.s                          0x00000000   Number         0  scanf2b.o ABSOLUTE
    ../../signal.c                           0x00000000   Number         0  defsig_rtmem_formal.o ABSOLUTE
    ../../signal.c                           0x00000000   Number         0  defsig_rtmem_outer.o ABSOLUTE
    ../../signal.c                           0x00000000   Number         0  defsig_fpe_inner.o ABSOLUTE
    ../../signal.c                           0x00000000   Number         0  defsig_exit.o ABSOLUTE
    ../../signal.c                           0x00000000   Number         0  __raise.o ABSOLUTE
    ../../signal.c                           0x00000000   Number         0  defsig_general.o ABSOLUTE
    ../../signal.c                           0x00000000   Number         0  defsig_rtmem_inner.o ABSOLUTE
    ../../signal.c                           0x00000000   Number         0  defsig_fpe_formal.o ABSOLUTE
    ../../signal.c                           0x00000000   Number         0  defsig_fpe_outer.o ABSOLUTE
    ../../signal.s                           0x00000000   Number         0  defsig.o ABSOLUTE
    ../../sin.c                              0x00000000   Number         0  sin.o ABSOLUTE
    ../../sin_i.c                            0x00000000   Number         0  sin_i.o ABSOLUTE
    ../../sqrt.c                             0x00000000   Number         0  sqrt.o ABSOLUTE
    ../../stdlib.c                           0x00000000   Number         0  exit.o ABSOLUTE
    ../../stkheap.s                          0x00000000   Number         0  heapext.o ABSOLUTE
    ../../stkheap1.s                         0x00000000   Number         0  stkheap1.o ABSOLUTE
    ../../stkheap2.s                         0x00000000   Number         0  stkheap2.o ABSOLUTE
    ../../string.c                           0x00000000   Number         0  strlen.o ABSOLUTE
    ../../tan.c                              0x00000000   Number         0  tan.o ABSOLUTE
    ../../tan_i.c                            0x00000000   Number         0  tan_i.o ABSOLUTE
    ../../trapv.s                            0x00000000   Number         0  trapv.o ABSOLUTE
    ../../unhosted.s                         0x00000000   Number         0  callvia.o ABSOLUTE
    ../../usenofp.s                          0x00000000   Number         0  usenofp.o ABSOLUTE
    Startup.s                                0x00000000   Number         0  startup.o ABSOLUTE
    dc.s                                     0x00000000   Number         0  dc.o ABSOLUTE
    main.c                                   0x00000000   Number         0  main.o ABSOLUTE
    Undef_Handler                            0x00000040   ARM Code       4  startup.o(RESET)
    SWI_Handler                              0x00000044   ARM Code       4  startup.o(RESET)
    PAbt_Handler                             0x00000048   ARM Code       4  startup.o(RESET)
    DAbt_Handler                             0x0000004c   ARM Code       4  startup.o(RESET)
    IRQ_Handler                              0x00000050   ARM Code       4  startup.o(RESET)
    FIQ_Handler                              0x00000054   ARM Code       4  startup.o(RESET)
    !!!main                                  0x00000120   Section        8  __main.o(!!!main)
    !!!scatter                               0x00000128   Section       60  __scatter.o(!!!scatter)
    !!dclz77c                                0x00000164   Section       96  __dclz77c.o(!!dclz77c)
    _decompress_loop                         0x0000016f   Thumb Code     0  __dclz77c.o(!!dclz77c)
    _decompress_getlen                       0x0000017d   Thumb Code     0  __dclz77c.o(!!dclz77c)
    _decompress_lits                         0x00000185   Thumb Code     0  __dclz77c.o(!!dclz77c)
    _decompress_lit                          0x00000189   Thumb Code     0  __dclz77c.o(!!dclz77c)
    _decompress_setupcopy                    0x00000195   Thumb Code     0  __dclz77c.o(!!dclz77c)
    _decompress_setupcopy_shortx             0x000001ab   Thumb Code     0  __dclz77c.o(!!dclz77c)
    _decompress_copy                         0x000001b1   Thumb Code     0  __dclz77c.o(!!dclz77c)
    _decompress_end                          0x000001bd   Thumb Code     0  __dclz77c.o(!!dclz77c)
    !!handler_zi                             0x000001c4   Section       44  __scatter_zi.o(!!handler_zi)
    .emb_text                                0x000001f4   Section       16  lib_init.o(.emb_text)
    .text                                    0x00000204   Section       32  startup.o(.text)
    .text                                    0x00000224   Section    471504  main.o(.text)
    .text                                    0x000733f4   Section      760  __printf.o(.text)
    .text                                    0x000736ec   Section       84  _printf_pad.o(.text)
    .text                                    0x00073740   Section      116  _printf_dec.o(.text)
    .text                                    0x000737bc   Section       44  __0sprintf.o(.text)
    .text                                    0x000737f0   Section       30  atoi.o(.text)
    .text                                    0x0007380e   Section      342  _scanf_longlong.o(.text)
    .text                                    0x00073964   Section      100  rt_memcpy_w.o(.text)
    .text                                    0x000739d0   Section       72  strlen.o(.text)
    .text                                    0x00073a1c   Section      384  aeabi_sdiv.o(.text)
    __arm_div8                               0x00073a48   ARM Code       0  aeabi_sdiv.o(.text)
    __arm_div4                               0x00073a78   ARM Code       0  aeabi_sdiv.o(.text)
    __arm_div_large                          0x00073acc   ARM Code       0  aeabi_sdiv.o(.text)
    .text                                    0x00073b9c   Section       64  stkheap2.o(.text)
    .text                                    0x00073bdc   Section      104  kernel.o(.text)
    .text                                    0x00073c44   Section       96  sys_stackheap_outer.o(.text)
    .text                                    0x00073ca8   Section       16  rt_errno_addr_intlibspace.o(.text)
    .text                                    0x00073cb8   Section       16  rt_stackheap_storage_intlibspace.o(.text)
    .text                                    0x00073ccc   Section       28  llmul.o(.text)
    .text                                    0x00073cf0   Section       26  _rserrno.o(.text)
    .text                                    0x00073d0a   Section      168  _printf_intcommon.o(.text)
    .text                                    0x00073db4   Section     1184  _printf_fp_dec.o(.text)
    _fp_digits                               0x00073db7   Thumb Code   486  _printf_fp_dec.o(.text)
    .text                                    0x00074254   Section       52  _printf_char_common.o(.text)
    .text                                    0x00074288   Section       10  _sputc.o(.text)
    .text                                    0x00074292   Section       34  _chval.o(.text)
    .text                                    0x000742bc   Section      172  strtod.o(.text)
    _local_sscanf                            0x000742bd   Thumb Code    60  strtod.o(.text)
    .text                                    0x00074368   Section      116  strtol.o(.text)
    .text                                    0x000743e0   Section       44  rtudiv10.o(.text)
    .text                                    0x0007440c   Section       16  callvia.o(.text)
    .text                                    0x0007441c   Section       24  sys_exit.o(.text)
    .text                                    0x00074434   Section       12  libspace.o(.text)
    .text                                    0x00074444   Section       24  rt_ctype_table.o(.text)
    .text                                    0x00074460   Section       16  rt_locale_intlibspace.o(.text)
    .text                                    0x00074474   Section      160  lludiv10.o(.text)
    .text                                    0x00074514   Section       22  isspace.o(.text)
    .text                                    0x0007452c   Section      200  bigflt0.o(.text)
    .text                                    0x000745f4   Section       32  _printf_outstr_char.o(.text)
    .text                                    0x00074614   Section       10  _printf_input_char.o(.text)
    .text                                    0x0007461e   Section       70  sgetc.o(.text)
    .text                                    0x00074664   Section      166  _strtoul.o(.text)
    .text                                    0x0007470a   Section       12  exit.o(.text)
    .text                                    0x00074720   Section      206  lib_init.o(.text)
    .text                                    0x000747f0   Section       12  boardinit2.o(.text)
    .text                                    0x000747fc   Section       16  boardinit3.o(.text)
    .text                                    0x0007480c   Section        4  use_no_semi.o(.text)
    .text                                    0x00074810   Section     1250  scanf_fp.o(.text)
    _fp_value                                0x00074811   Thumb Code   536  scanf_fp.o(.text)
    .text                                    0x00074cf4   Section      160  strcmp.o(.text)
    .text                                    0x00074d94   Section        6  no_argv.o(.text)
    .text                                    0x00074d9c   Section       16  rt_fp_status_addr_intlibspace.o(.text)
    .text                                    0x00074db0   Section        8  llmullu.o(.text)
    .text                                    0x00074dc0   Section     1328  scanf_hexfp.o(.text)
    .text                                    0x000752f4   Section       40  llshl.o(.text)
    .text_udiv                               0x0007531c   Section       28  aeabi_sdiv.o(.text_udiv)
    CL$$btod_d2e                             0x0007533c   Section       56  btod.o(CL$$btod_d2e)
    CL$$btod_d2e_denorm_low                  0x00075374   Section       84  btod.o(CL$$btod_d2e_denorm_low)
    CL$$btod_d2e_norm_op1                    0x000753c8   Section      104  btod.o(CL$$btod_d2e_norm_op1)
    CL$$btod_div_common                      0x00075430   Section      844  btod.o(CL$$btod_div_common)
    CL$$btod_e2d                             0x0007577c   Section      100  btod.o(CL$$btod_e2d)
    CL$$btod_e2e                             0x000757e0   Section      220  btod.o(CL$$btod_e2e)
    CL$$btod_ediv                            0x000758c0   Section       52  btod.o(CL$$btod_ediv)
    CL$$btod_edivd                           0x000758f8   Section       52  btod.o(CL$$btod_edivd)
    CL$$btod_emul                            0x00075930   Section       52  btod.o(CL$$btod_emul)
    CL$$btod_emuld                           0x00075968   Section       52  btod.o(CL$$btod_emuld)
    CL$$btod_mult_common                     0x0007599c   Section      616  btod.o(CL$$btod_mult_common)
    i.__ARM_fpclassify                       0x00075c50   Section       48  fpclassify.o(i.__ARM_fpclassify)
    i.__ARM_isfinite                         0x00075c80   Section       28  ldexp.o(i.__ARM_isfinite)
    __ARM_isfinite                           0x00075c80   ARM Code      24  ldexp.o(i.__ARM_isfinite)
    i.__ieee754_rem_pio2                     0x00075c9c   Section     1196  rred.o(i.__ieee754_rem_pio2)
    i.__kernel_cos                           0x00076148   Section      400  cos_i.o(i.__kernel_cos)
    i.__kernel_poly                          0x000762d8   Section      248  poly.o(i.__kernel_poly)
    i.__kernel_sin                           0x000763d0   Section      376  sin_i.o(i.__kernel_sin)
    i.__kernel_tan                           0x00076548   Section      976  tan_i.o(i.__kernel_tan)
    i.__mathlib_classify                     0x0007691c   Section       56  classify.o(i.__mathlib_classify)
    i.__mathlib_narrow                       0x00076958   Section       36  narrow.o(i.__mathlib_narrow)
    i.__mathlib_tofloat                      0x0007697c   Section      228  narrow.o(i.__mathlib_tofloat)
    i.__support_dtoi                         0x00076a64   Section       96  dtoi.o(i.__support_dtoi)
    i.__support_itod                         0x00076ac8   Section       12  itod.o(i.__support_itod)
    i.__support_ldexp                        0x00076ad8   Section       32  ldexp.o(i.__support_ldexp)
    i.acos                                   0x00076af8   Section      984  acos.o(i.acos)
    i.asin                                   0x00076ed0   Section     1000  asin.o(i.asin)
    i.atan                                   0x000772b8   Section      840  atan.o(i.atan)
    i.atof                                   0x00077600   Section       80  atof.o(i.atof)
    i.cos                                    0x00077650   Section      236  cos.o(i.cos)
    i.frexp                                  0x0007773c   Section      116  frexp.o(i.frexp)
    i.ldexp                                  0x000777b0   Section      240  ldexp.o(i.ldexp)
    i.sin                                    0x000778a0   Section      252  sin.o(i.sin)
    i.sqrt                                   0x0007799c   Section      120  sqrt.o(i.sqrt)
    i.tan                                    0x00077a14   Section      176  tan.o(i.tan)
    locale$$code                             0x00077ac8   Section       80  lc_numeric_c.o(locale$$code)
    locale$$code                             0x00077b1c   Section       80  lc_ctype_c.o(locale$$code)
    x$fpl$d2f                                0x00077b6c   Section      172  d2f.o(x$fpl$d2f)
    x$fpl$dadd                               0x00077c18   Section      468  daddsub_noclz.o(x$fpl$dadd)
    _dadd1                                   0x00077c28   ARM Code       0  daddsub_noclz.o(x$fpl$dadd)
    x$fpl$dcheck                             0x00077dec   Section       16  dcheck.o(x$fpl$dcheck)
    x$fpl$dcheck1                            0x00077dfc   Section       16  dcheck1.o(x$fpl$dcheck1)
    x$fpl$dcmpinfnan                         0x00077e0c   Section      128  dcmpin.o(x$fpl$dcmpinfnan)
    x$fpl$dcmpinfnan                         0x00077e8c   Section      100  fcmpin.o(x$fpl$dcmpinfnan)
    x$fpl$ddiv                               0x00077ef0   Section     1216  ddiv.o(x$fpl$ddiv)
    ddiv_entry                               0x00077ef4   ARM Code       0  ddiv.o(x$fpl$ddiv)
    x$fpl$deqf                               0x000783b0   Section      136  deqf.o(x$fpl$deqf)
    x$fpl$dfix                               0x00078438   Section      176  dfix.o(x$fpl$dfix)
    x$fpl$dflt                               0x000784e8   Section       88  dflt_noclz.o(x$fpl$dflt)
    x$fpl$dfltu                              0x00078540   Section       12  dflt_noclz.o(x$fpl$dfltu)
    x$fpl$dleqf                              0x0007854c   Section      136  dleqf.o(x$fpl$dleqf)
    x$fpl$dmul                               0x000785d4   Section      476  dmul.o(x$fpl$dmul)
    x$fpl$drem                               0x000787b0   Section      508  drem.o(x$fpl$drem)
    x$fpl$drleqf                             0x000789ac   Section      160  drleqf.o(x$fpl$drleqf)
    x$fpl$drsb                               0x00078a4c   Section       24  daddsub_noclz.o(x$fpl$drsb)
    x$fpl$dsqrt                              0x00078a64   Section      392  dsqrt.o(x$fpl$dsqrt)
    x$fpl$dsub                               0x00078bec   Section      584  daddsub_noclz.o(x$fpl$dsub)
    _dsub1                                   0x00078bfc   ARM Code       0  daddsub_noclz.o(x$fpl$dsub)
    x$fpl$dunder                             0x00078e34   Section      276  dunder.o(x$fpl$dunder)
    x$fpl$f2d                                0x00078f48   Section      100  f2d.o(x$fpl$f2d)
    x$fpl$fadd                               0x00078fac   Section      264  faddsub_noclz.o(x$fpl$fadd)
    _fadd1                                   0x00078fb8   ARM Code       0  faddsub_noclz.o(x$fpl$fadd)
    x$fpl$fcheck                             0x000790b4   Section       12  fcheck.o(x$fpl$fcheck)
    x$fpl$fcheck1                            0x000790c0   Section       12  fcheck1.o(x$fpl$fcheck1)
    x$fpl$fdiv                               0x000790cc   Section      484  fdiv.o(x$fpl$fdiv)
    _fdiv1                                   0x000790cc   ARM Code       0  fdiv.o(x$fpl$fdiv)
    x$fpl$feqf                               0x000792b0   Section      120  feqf.o(x$fpl$feqf)
    x$fpl$ffix                               0x00079328   Section      116  ffix.o(x$fpl$ffix)
    x$fpl$ffixu                              0x0007939c   Section       96  ffixu.o(x$fpl$ffixu)
    x$fpl$fflt                               0x000793fc   Section       92  fflt_noclz.o(x$fpl$fflt)
    x$fpl$ffltu                              0x00079458   Section        8  fflt_noclz.o(x$fpl$ffltu)
    x$fpl$fleqf                              0x00079460   Section      120  fleqf.o(x$fpl$fleqf)
    x$fpl$fmul                               0x000794d8   Section      264  fmul.o(x$fpl$fmul)
    x$fpl$fnorm2                             0x000795e0   Section      148  fnorm2_noclz.o(x$fpl$fnorm2)
    x$fpl$fpinit                             0x00079678   Section       24  fpinit.o(x$fpl$fpinit)
    x$fpl$frleqf                             0x00079690   Section      132  frleqf.o(x$fpl$frleqf)
    x$fpl$frsb                               0x00079714   Section       20  faddsub_noclz.o(x$fpl$frsb)
    x$fpl$fsub                               0x00079728   Section      360  faddsub_noclz.o(x$fpl$fsub)
    _fsub1                                   0x00079734   ARM Code       0  faddsub_noclz.o(x$fpl$fsub)
    x$fpl$funder                             0x00079890   Section      144  funder.o(x$fpl$funder)
    x$fpl$ieeestatus                         0x00079924   Section        8  istatus.o(x$fpl$ieeestatus)
    x$fpl$printf1                            0x00079930   Section        4  printf1.o(x$fpl$printf1)
    x$fpl$retnan                             0x00079934   Section      116  retnan.o(x$fpl$retnan)
    x$fpl$scalbn                             0x000799a8   Section      108  scalbn_noclz.o(x$fpl$scalbn)
    x$fpl$scanf1                             0x00079a18   Section        4  scanf1.o(x$fpl$scanf1)
    x$fpl$scanf2                             0x00079a20   Section        8  scanf2.o(x$fpl$scanf2)
    x$fpl$trapveneer                         0x00079a28   Section       60  trapv.o(x$fpl$trapveneer)
    .constdata                               0x00079a64   Section     5232  main.o(.constdata)
    x$fpl$usenofp                            0x00079a64   Number         0  usenofp.o(x$fpl$usenofp)
    .constdata                               0x0007aed4   Section       17  __printf.o(.constdata)
    maptable@__printf_0                      0x0007aed4   Data          17  __printf.o(.constdata)
    .constdata                               0x0007aee8   Section       80  acos.o(.constdata)
    pS                                       0x0007aee8   Data          48  acos.o(.constdata)
    qS                                       0x0007af18   Data          32  acos.o(.constdata)
    .constdata                               0x0007af38   Section       80  asin.o(.constdata)
    pS                                       0x0007af38   Data          48  asin.o(.constdata)
    qS                                       0x0007af68   Data          32  asin.o(.constdata)
    .constdata                               0x0007af88   Section      152  atan.o(.constdata)
    atanhi                                   0x0007af88   Data          32  atan.o(.constdata)
    atanlo                                   0x0007afa8   Data          32  atan.o(.constdata)
    aTodd                                    0x0007afc8   Data          40  atan.o(.constdata)
    aTeven                                   0x0007aff0   Data          48  atan.o(.constdata)
    .constdata                               0x0007b020   Section       48  cos_i.o(.constdata)
    C                                        0x0007b020   Data          48  cos_i.o(.constdata)
    .constdata                               0x0007b050   Section      192  rred.o(.constdata)
    reductions                               0x0007b050   Data         144  rred.o(.constdata)
    pio2s@__ieee754_rem_pio2_1               0x0007b0e0   Data          48  rred.o(.constdata)
    .constdata                               0x0007b110   Section       40  sin_i.o(.constdata)
    S                                        0x0007b110   Data          40  sin_i.o(.constdata)
    .constdata                               0x0007b138   Section       96  tan_i.o(.constdata)
    Todd                                     0x0007b138   Data          48  tan_i.o(.constdata)
    Teven                                    0x0007b168   Data          48  tan_i.o(.constdata)
    .constdata                               0x0007b198   Section      148  bigflt0.o(.constdata)
    tenpwrs_x@_btod_etento_0                 0x0007b198   Data          60  bigflt0.o(.constdata)
    tenpwrs_i@_btod_etento_1                 0x0007b1d4   Data          64  bigflt0.o(.constdata)
    .constdata                               0x0007b230   Section        8  qnan.o(.constdata)
    c$$dinf                                  0x0007b258   Section        8  fpconst.o(c$$dinf)
    locale$$data                             0x0007b260   Section       28  lc_numeric_c.o(locale$$data)
    __lcnum_c_name                           0x0007b264   Data           2  lc_numeric_c.o(locale$$data)
    __lcnum_c_start                          0x0007b26c   Data           0  lc_numeric_c.o(locale$$data)
    __lcnum_c_point                          0x0007b278   Data           0  lc_numeric_c.o(locale$$data)
    __lcnum_c_thousands                      0x0007b27a   Data           0  lc_numeric_c.o(locale$$data)
    __lcnum_c_grouping                       0x0007b27b   Data           0  lc_numeric_c.o(locale$$data)
    locale$$data                             0x0007b27c   Section      272  lc_ctype_c.o(locale$$data)
    __lcnum_c_end                            0x0007b27c   Data           0  lc_numeric_c.o(locale$$data)
    __lcctype_c_name                         0x0007b280   Data           2  lc_ctype_c.o(locale$$data)
    __lcctype_c_start                        0x0007b288   Data           0  lc_ctype_c.o(locale$$data)
    __lcctype_c_end                          0x0007b38c   Number         0  lc_ctype_c.o(locale$$data)
    .data                                    0x40000000   Section    13675  main.o(.data)
    day_year@moonPhase_0                     0x40002bbc   Data          52  main.o(.data)
    .bss                                     0x40003570   Section     5940  main.o(.bss)
    .bss                                     0x40004ca4   Section       96  libspace.o(.bss)
    HEAP                                     0x40004d08   Number         0  startup.o(HEAP)
    STACK                                    0x40004d08   Section     1160  startup.o(STACK)
    Heap_Mem                                 0x40004d08   Number         0  startup.o(HEAP)
    Stack_Mem                                0x40004d08   Data        1024  startup.o(STACK)
    Stack_Top                                0x40005190   Number         0  startup.o(STACK)

    Global Symbols

    Symbol Name                              Value     Ov Type        Size  Object(Section)

    BuildAttributes$$THM_ISAv1$ARM_ISAv4$M$S$PE$A:L22$X:L11$S22$IEEE1$IW$USESV6$~STKCKD$USESV7$~SHL$OSPACE$EBA8$STANDARDLIB$REQ8$PRES8$EABIv2 0x00000000   Number         0  anon$$obj.o ABSOLUTE
    __ARM_use_no_argv                        0x00000000   Number         0  main.o ABSOLUTE
    __ARM_exceptions_init                     - Undefined Weak Reference
    __Heap_DescSize                           - Undefined Weak Reference
    __alloca_initialize                       - Undefined Weak Reference
    __cpp_initialize__aeabi_                  - Undefined Weak Reference
    __cxa_finalize                            - Undefined Weak Reference
    __fpl_infinity                            - Undefined Weak Reference
    __rt_SIGABRT_inner                        - Undefined Weak Reference
    __rt_SIGCPPL_inner                        - Undefined Weak Reference
    __rt_SIGILL_inner                         - Undefined Weak Reference
    __rt_SIGINT_inner                         - Undefined Weak Reference
    __rt_SIGPVFN_inner                        - Undefined Weak Reference
    __rt_SIGRTRED_inner                       - Undefined Weak Reference
    __rt_SIGSEGV_inner                        - Undefined Weak Reference
    __rt_SIGSTAK_inner                        - Undefined Weak Reference
    __rt_SIGTERM_inner                        - Undefined Weak Reference
    __rt_SIGUSR1_inner                        - Undefined Weak Reference
    __rt_SIGUSR2_inner                        - Undefined Weak Reference
    __rt_sigother_inner                       - Undefined Weak Reference
    __sigvec_lookup                           - Undefined Weak Reference
    __user_heap_extend                        - Undefined Weak Reference
    _atexit_init                              - Undefined Weak Reference
    _call_atexit_fns                          - Undefined Weak Reference
    _clock_init                               - Undefined Weak Reference
    _fp_trap_init                             - Undefined Weak Reference
    _get_lc_collate                           - Undefined Weak Reference
    _get_lc_monetary                          - Undefined Weak Reference
    _get_lc_time                              - Undefined Weak Reference
    _getenv_init                              - Undefined Weak Reference
    _handle_redirection                       - Undefined Weak Reference
    _init_alloc                               - Undefined Weak Reference
    _init_user_alloc                          - Undefined Weak Reference
    _initio                                   - Undefined Weak Reference
    _printf_charcount                         - Undefined Weak Reference
    _printf_fp_hex                            - Undefined Weak Reference
    _printf_longlong_dec                      - Undefined Weak Reference
    _printf_longlong_hex                      - Undefined Weak Reference
    _printf_longlong_oct                      - Undefined Weak Reference
    _printf_mbtowc                            - Undefined Weak Reference
    _printf_str                               - Undefined Weak Reference
    _printf_truncate_signed                   - Undefined Weak Reference
    _printf_truncate_unsigned                 - Undefined Weak Reference
    _printf_wc                                - Undefined Weak Reference
    _printf_wctomb                            - Undefined Weak Reference
    _rand_init                                - Undefined Weak Reference
    _signal_init                              - Undefined Weak Reference
    _terminate_user_alloc                     - Undefined Weak Reference
    _terminateio                              - Undefined Weak Reference
    Reset_Handler                            0x00000058   ARM Code       0  startup.o(RESET)
    __main                                   0x00000120   ARM Code       8  __main.o(!!!main)
    __scatterload                            0x00000128   ARM Code       0  __scatter.o(!!!scatter)
    __scatterload_rt2                        0x00000128   ARM Code      52  __scatter.o(!!!scatter)
    __scatterload_null                       0x0000013c   ARM Code       0  __scatter.o(!!!scatter)
    __decompress                             0x00000164   ARM Code      96  __dclz77c.o(!!dclz77c)
    __decompress2                            0x00000164   ARM Code       0  __dclz77c.o(!!dclz77c)
    __scatterload_zeroinit                   0x000001c4   ARM Code      44  __scatter_zi.o(!!handler_zi)
    Inline Thumb to ARM Veneer to __ARM_argv_veneer 0x000001f1   Thumb Code     0  lib_init.o(.emb_text)
    __ARM_argv_veneer                        0x000001f4   ARM Code      16  lib_init.o(.emb_text)
    __user_initial_stackheap                 0x00000204   ARM Code       0  startup.o(.text)
    LCDWD                                    0x00000224   ARM Code     184  main.o(.text)
    LCDWC                                    0x000002dc   ARM Code     184  main.o(.text)
    LCDRfrsh                                 0x00000394   ARM Code      88  main.o(.text)
    LCDInit                                  0x000003ec   ARM Code     176  main.o(.text)
    LCDBacklight                             0x0000049c   ARM Code      80  main.o(.text)
    Eyelight                                 0x000004ec   ARM Code      80  main.o(.text)
    LCDContrast                              0x0000053c   ARM Code      52  main.o(.text)
    ZFIndex                                  0x00000570   ARM Code     124  main.o(.text)
    MSPI_Init                                0x000005ec   ARM Code      24  main.o(.text)
    MSPI_SendData                            0x00000604   ARM Code      48  main.o(.text)
    Disp8x8                                  0x00000634   ARM Code     436  main.o(.text)
    DispEn                                   0x000007e8   ARM Code     124  main.o(.text)
    DispCh                                   0x00000864   ARM Code     184  main.o(.text)
    DispUn                                   0x0000091c   ARM Code    2236  main.o(.text)
    GetKey                                   0x000011d8   ARM Code      56  main.o(.text)
    DoKey                                    0x00001210   ARM Code      88  main.o(.text)
    PutKey                                   0x00001268   ARM Code    1384  main.o(.text)
    Key_Ini                                  0x000017d0   ARM Code      40  main.o(.text)
    Timer0ISR                                0x000017f8   ARM Code     468  main.o(.text)
    RTC_ISR                                  0x000019cc   ARM Code      40  main.o(.text)
    IRQ_UART1                                0x000019f4   ARM Code     660  main.o(.text)
    IRQ_UART0                                0x00001c88   ARM Code     680  main.o(.text)
    Init_Uart0                               0x00001f30   ARM Code     128  main.o(.text)
    UART0_GetByte                            0x00001fb0   ARM Code     164  main.o(.text)
    UART0_GetStr                             0x00002054   ARM Code      44  main.o(.text)
    UART0_SentByte                           0x00002080   ARM Code      32  main.o(.text)
    UART0_SentByteArray                      0x000020a0   ARM Code      48  main.o(.text)
    SUART0_SentStr                           0x000020d0   ARM Code      76  main.o(.text)
    Init_Uart1                               0x0000211c   ARM Code     128  main.o(.text)
    UART1_GetByte                            0x0000219c   ARM Code      32  main.o(.text)
    UART1_GetStr                             0x000021bc   ARM Code      44  main.o(.text)
    UART1_SentByte                           0x000021e8   ARM Code      32  main.o(.text)
    UART1_Sent_Str                           0x00002208   ARM Code      76  main.o(.text)
    delay                                    0x00002254   ARM Code      40  main.o(.text)
    TimerInit                                0x0000227c   ARM Code     172  main.o(.text)
    PowerOnInit                              0x00002328   ARM Code     276  main.o(.text)
    ReadFromRom                              0x0000243c   ARM Code     152  main.o(.text)
    WriteToRom                               0x000024d4   ARM Code     184  main.o(.text)
    WriteCustomStar                          0x0000258c   ARM Code     128  main.o(.text)
    WriteCustomLandTarget                    0x0000260c   ARM Code     128  main.o(.text)
    WriteRecentTarget                        0x0000268c   ARM Code     312  main.o(.text)
    GetTelZero                               0x000027c4   ARM Code     332  main.o(.text)
    SetTelZero                               0x00002910   ARM Code     160  main.o(.text)
    SetSite                                  0x000029b0   ARM Code     108  main.o(.text)
    GetSite                                  0x00002a1c   ARM Code     988  main.o(.text)
    Edit                                     0x00002df8   ARM Code     156  main.o(.text)
    SetTrackingErrorInfoNum                  0x00002e94   ARM Code     108  main.o(.text)
    GetTrackingErrorInfoNum                  0x00002f00   ARM Code      72  main.o(.text)
    EditTrackingErrorInfo                    0x00002f48   ARM Code      44  main.o(.text)
    GetTrackingErrorInfo                     0x00002f74   ARM Code     368  main.o(.text)
    AddTrackingErrorInfo                     0x000030e4   ARM Code     332  main.o(.text)
    AddCustomerLandMarkInfo                  0x00003230   ARM Code       8  main.o(.text)
    SetRecentStarInfoNum                     0x00003238   ARM Code     108  main.o(.text)
    GetRecentStarInfoNum                     0x000032a4   ARM Code      72  main.o(.text)
    SetLatestRecentStarInfoNum               0x000032ec   ARM Code     108  main.o(.text)
    GetLatestRecentStarInfoNum               0x00003358   ARM Code      72  main.o(.text)
    EditRecentStarInfo                       0x000033a0   ARM Code      44  main.o(.text)
    GetRecentStarInfo                        0x000033cc   ARM Code     280  main.o(.text)
    GetAlignStar                             0x000034e4   ARM Code    1016  main.o(.text)
    GetCon88                                 0x000038dc   ARM Code     636  main.o(.text)
    GetMessier110                            0x00003b58   ARM Code    1232  main.o(.text)
    GetBright167                             0x00004028   ARM Code     820  main.o(.text)
    GetSh2313                                0x0000435c   ARM Code     568  main.o(.text)
    GetIC5386                                0x00004594   ARM Code     768  main.o(.text)
    GetNGC7840                               0x00004894   ARM Code     768  main.o(.text)
    GetSAO258997                             0x00004b94   ARM Code     572  main.o(.text)
    GetChinaCity640                          0x00004dd0   ARM Code     396  main.o(.text)
    GetWorldCity170                          0x00004f5c   ARM Code     700  main.o(.text)
    GetCustomStar                            0x00005218   ARM Code     712  main.o(.text)
    GetCustomLandTarget                      0x000054e0   ARM Code     728  main.o(.text)
    GetRecentTarget                          0x000057b8   ARM Code     308  main.o(.text)
    FindAlignStar                            0x000058ec   ARM Code    1620  main.o(.text)
    InitSysPara                              0x00005f40   ARM Code    1468  main.o(.text)
    GetSysTime                               0x000064fc   ARM Code     132  main.o(.text)
    MenuDelay                                0x00006580   ARM Code      56  main.o(.text)
    FDriveTelescope                          0x000065b8   ARM Code    3936  main.o(.text)
    FHandPowerTelescope                      0x00007518   ARM Code      52  main.o(.text)
    FStartGoto                               0x0000754c   ARM Code     144  main.o(.text)
    FPointStarAlgorithm                      0x000075dc   ARM Code     768  main.o(.text)
    FBeep                                    0x000078dc   ARM Code      40  main.o(.text)
    FAlignStarRAPos                          0x00007904   ARM Code     932  main.o(.text)
    GetLocalTime                             0x00007ca8   ARM Code     528  main.o(.text)
    FCalSiderealTime                         0x00007eb8   ARM Code    3184  main.o(.text)
    FCalStarAEPos                            0x00008b28   ARM Code    1496  main.o(.text)
    GotoEQ                                   0x00009100   ARM Code    7004  main.o(.text)
    FAlignStarAEPos                          0x0000ac5c   ARM Code     732  main.o(.text)
    GotoAZ                                   0x0000af38   ARM Code    6408  main.o(.text)
    FCalStarEQPos                            0x0000c840   ARM Code    1224  main.o(.text)
    FReadTelescopePos                        0x0000cd08   ARM Code      76  main.o(.text)
    FStopGoto                                0x0000cd54   ARM Code      32  main.o(.text)
    FPauseGoto                               0x0000cd74   ARM Code     164  main.o(.text)
    FContinueGoto                            0x0000ce18   ARM Code     144  main.o(.text)
    FPointNewStar                            0x0000cea8   ARM Code     348  main.o(.text)
    FSetLocation                             0x0000d004   ARM Code      44  main.o(.text)
    FThreeStarCal                            0x0000d030   ARM Code    1624  main.o(.text)
    FTowStarCal                              0x0000d688   ARM Code    1604  main.o(.text)
    FOneStarCal                              0x0000dccc   ARM Code     108  main.o(.text)
    FAutoAlign                               0x0000dd38   ARM Code     888  main.o(.text)
    FPointAlignStarOk                        0x0000e0b0   ARM Code    1244  main.o(.text)
    FTwoStarAutoAlign                        0x0000e58c   ARM Code     444  main.o(.text)
    FOneStarAlign                            0x0000e748   ARM Code     240  main.o(.text)
    FTwoStarAlign                            0x0000e838   ARM Code     240  main.o(.text)
    FThreeStarAlign                          0x0000e928   ARM Code     240  main.o(.text)
    FStarCal                                 0x0000ea18   ARM Code      16  main.o(.text)
    FSetupPointTrackPara                     0x0000ea28   ARM Code    1264  main.o(.text)
    FBeep1                                   0x0000ef18   ARM Code      40  main.o(.text)
    FSRiseSettime                            0x0000ef40   ARM Code    1144  main.o(.text)
    FDriveTelescopeNew                       0x0000f3b8   ARM Code       4  main.o(.text)
    dispPhase                                0x0000f3bc   ARM Code     264  main.o(.text)
    isLeapYearP                              0x0000f4c4   ARM Code      92  main.o(.text)
    daysInMonth                              0x0000f520   ARM Code     148  main.o(.text)
    moonPhase                                0x0000f5b4   ARM Code     364  main.o(.text)
    dispMoonphase                            0x0000f720   ARM Code     408  main.o(.text)
    getLofEarth                              0x0000f8b8   ARM Code    2016  main.o(.text)
    getBofEarth                              0x00010098   ARM Code    1020  main.o(.text)
    getRofEarth                              0x00010494   ARM Code    1332  main.o(.text)
    getLofMercury                            0x000109c8   ARM Code    2548  main.o(.text)
    getBofMercury                            0x000113bc   ARM Code    1980  main.o(.text)
    getRofMercury                            0x00011b78   ARM Code    1872  main.o(.text)
    getLofVenus                              0x000122c8   ARM Code    1872  main.o(.text)
    getBofVenus                              0x00012a18   ARM Code    1216  main.o(.text)
    getRofVenus                              0x00012ed8   ARM Code     952  main.o(.text)
    getLofMars                               0x00013290   ARM Code    2396  main.o(.text)
    getBofMars                               0x00013bec   ARM Code    1596  main.o(.text)
    getRofMars                               0x00014228   ARM Code    1824  main.o(.text)
    getLofJupiter                            0x00014948   ARM Code    2916  main.o(.text)
    getBofJupiter                            0x000154ac   ARM Code    2260  main.o(.text)
    getRofJupiter                            0x00015d80   ARM Code    3420  main.o(.text)
    getLofSaturn                             0x00016adc   ARM Code    3540  main.o(.text)
    getBofSaturn                             0x000178b0   ARM Code    2376  main.o(.text)
    getRofSaturn                             0x000181f8   ARM Code    3028  main.o(.text)
    getLofUranus                             0x00018dcc   ARM Code    2864  main.o(.text)
    getBofUranus                             0x000198fc   ARM Code    1512  main.o(.text)
    getRofUranus                             0x00019ee4   ARM Code    2512  main.o(.text)
    getLofNeptune                            0x0001a8b4   ARM Code    1460  main.o(.text)
    getBofNeptune                            0x0001ae68   ARM Code    1356  main.o(.text)
    getRofNeptune                            0x0001b3b4   ARM Code    1720  main.o(.text)
    getLofPluto                              0x0001ba6c   ARM Code     944  main.o(.text)
    getBofPluto                              0x0001be1c   ARM Code    1092  main.o(.text)
    getRofPluto                              0x0001c260   ARM Code    1112  main.o(.text)
    angleConvert                             0x0001c6b8   ARM Code     164  main.o(.text)
    calRaDec                                 0x0001c75c   ARM Code    1384  main.o(.text)
    calPlanetPos                             0x0001ccc4   ARM Code   11344  main.o(.text)
    GetPlanetPos                             0x0001f914   ARM Code     172  main.o(.text)
    FHelpShow                                0x0001f9c0   ARM Code   10604  main.o(.text)
    FSysMainShow                             0x0002232c   ARM Code    5324  main.o(.text)
    GetSunSysObject                          0x000237f8   ARM Code    1020  main.o(.text)
    GetMenuScreenEn                          0x00023bf4   ARM Code    3284  main.o(.text)
    FSelShowLanguage                         0x000248c8   ARM Code     160  main.o(.text)
    GetMenuScreenUn                          0x00024968   ARM Code    3864  main.o(.text)
    GetRectntTarget                          0x00025880   ARM Code    1164  main.o(.text)
    FSysMainShowSet                          0x00025d0c   ARM Code    4584  main.o(.text)
    FSelMenuLanguage                         0x00026ef4   ARM Code    8348  main.o(.text)
    FMenuShowSet                             0x00028f90   ARM Code   88876  main.o(.text)
    FMenuShow                                0x0003eabc   ARM Code   71352  main.o(.text)
    FKeyTorch                                0x00050174   ARM Code     172  main.o(.text)
    FHandControlTelescopeTwo                 0x00050220   ARM Code    2420  main.o(.text)
    FKeyRightUp                              0x00050b94   ARM Code     480  main.o(.text)
    FKeyRightDown                            0x00050d74   ARM Code     484  main.o(.text)
    FKeyLeftDown                             0x00050f58   ARM Code     480  main.o(.text)
    FKeyLeftUp                               0x00051138   ARM Code     476  main.o(.text)
    FVerifyAlarmInput                        0x00051314   ARM Code     148  main.o(.text)
    GetTime                                  0x000513a8   ARM Code      48  main.o(.text)
    FRaDecInputShow                          0x000513d8   ARM Code    1840  main.o(.text)
    FverifyInputAziAltZero                   0x00051b08   ARM Code     548  main.o(.text)
    FInitPara                                0x00051d2c   ARM Code     388  main.o(.text)
    SysReset                                 0x00051eb0   ARM Code    1276  main.o(.text)
    FverifyInputSite                         0x000523ac   ARM Code     796  main.o(.text)
    FSetSysTime                              0x000526c8   ARM Code     400  main.o(.text)
    SaveCLand                                0x00052858   ARM Code     764  main.o(.text)
    FGetTelPos                               0x00052b54   ARM Code    1160  main.o(.text)
    FVerifyRaDecInput                        0x00052fdc   ARM Code    2044  main.o(.text)
    SaveCStar                                0x000537d8   ARM Code     680  main.o(.text)
    FKeyEnter                                0x00053a80   ARM Code   14536  main.o(.text)
    FStarInputRight                          0x00057348   ARM Code     580  main.o(.text)
    FLandmarkInputRight                      0x0005758c   ARM Code     564  main.o(.text)
    FindCityAdd                              0x000577c0   ARM Code     648  main.o(.text)
    FMfocusInputMoveRight                    0x00057a48   ARM Code     140  main.o(.text)
    FSFovInputMoveRight                      0x00057ad4   ARM Code     164  main.o(.text)
    FSfocusInputMoveRight                    0x00057b78   ARM Code      84  main.o(.text)
    FAlarmInputMoveRight                     0x00057bcc   ARM Code     192  main.o(.text)
    FTimerInputMoveRight                     0x00057c8c   ARM Code     160  main.o(.text)
    FTelZeroInputRight                       0x00057d2c   ARM Code     164  main.o(.text)
    FSiteInputRight                          0x00057dd0   ARM Code     828  main.o(.text)
    FDateTimeInputMoveRight                  0x0005810c   ARM Code     484  main.o(.text)
    FRaTrackSpeedInputMoveRight              0x000582f0   ARM Code     164  main.o(.text)
    FHandControlTelescope                    0x00058394   ARM Code    1592  main.o(.text)
    FDecInputMoveRight                       0x000589cc   ARM Code     244  main.o(.text)
    FRaInputMoveRight                        0x00058ac0   ARM Code     220  main.o(.text)
    FKeyRight                                0x00058b9c   ARM Code    1984  main.o(.text)
    FStarInputLeft                           0x0005935c   ARM Code     580  main.o(.text)
    FLandmarkInputLeft                       0x000595a0   ARM Code     564  main.o(.text)
    FindCityDec                              0x000597d4   ARM Code     648  main.o(.text)
    FMfocusInputMoveLeft                     0x00059a5c   ARM Code     140  main.o(.text)
    FSFovInputMoveLeft                       0x00059ae8   ARM Code     164  main.o(.text)
    FSfocusInputMoveLeft                     0x00059b8c   ARM Code      84  main.o(.text)
    FAlarmInputMoveLeft                      0x00059be0   ARM Code     192  main.o(.text)
    FTimerInputMoveLeft                      0x00059ca0   ARM Code     160  main.o(.text)
    FTelZeroInputLeft                        0x00059d40   ARM Code     164  main.o(.text)
    FSiteInputLeft                           0x00059de4   ARM Code     852  main.o(.text)
    FDateTimeInputMoveLeft                   0x0005a138   ARM Code     484  main.o(.text)
    FRaTrackSpeedInputMoveLeft               0x0005a31c   ARM Code     164  main.o(.text)
    FDecInputMoveLeft                        0x0005a3c0   ARM Code     244  main.o(.text)
    FRaInputMoveLeft                         0x0005a4b4   ARM Code     220  main.o(.text)
    FFindObjectAccAdd                        0x0005a590   ARM Code     140  main.o(.text)
    FKeyLeft                                 0x0005a61c   ARM Code    1844  main.o(.text)
    FindCountryAdd                           0x0005ad50   ARM Code    1964  main.o(.text)
    DoMenurowFtCnFtEnAddDec                  0x0005b4fc   ARM Code    1492  main.o(.text)
    FKeyDown                                 0x0005bad0   ARM Code    7824  main.o(.text)
    FindCountryDec                           0x0005d960   ARM Code    1812  main.o(.text)
    FKeyUp                                   0x0005e074   ARM Code    7740  main.o(.text)
    FHandStopTelescope                       0x0005feb0   ARM Code     368  main.o(.text)
    FKeyBack                                 0x00060020   ARM Code    6704  main.o(.text)
    FKeyMenu                                 0x00061a50   ARM Code     168  main.o(.text)
    FKeyWH                                   0x00061af8   ARM Code     212  main.o(.text)
    FKeyXH                                   0x00061bcc   ARM Code    4084  main.o(.text)
    F_LandmarkInput                          0x00062bc0   ARM Code    1284  main.o(.text)
    FTelZeroInput                            0x000630c4   ARM Code     340  main.o(.text)
    FSiteInput                               0x00063218   ARM Code    1988  main.o(.text)
    FKey9                                    0x000639dc   ARM Code    2824  main.o(.text)
    FKey8                                    0x000644e4   ARM Code    2864  main.o(.text)
    FKey7                                    0x00065014   ARM Code    2800  main.o(.text)
    FKey6                                    0x00065b04   ARM Code    2684  main.o(.text)
    FKey5                                    0x00066580   ARM Code    2792  main.o(.text)
    FKey4                                    0x00067068   ARM Code    2752  main.o(.text)
    FKey3                                    0x00067b28   ARM Code    2684  main.o(.text)
    FKey2                                    0x000685a4   ARM Code    2784  main.o(.text)
    F_SelfdefStarInput                       0x00069084   ARM Code    1440  main.o(.text)
    FKey1                                    0x00069624   ARM Code    2576  main.o(.text)
    FKey0                                    0x0006a034   ARM Code    3516  main.o(.text)
    GetKeyValue                              0x0006adf0   ARM Code     488  main.o(.text)
    DoMenu                                   0x0006afd8   ARM Code    2216  main.o(.text)
    FGetTelescopePos                         0x0006b880   ARM Code    1064  main.o(.text)
    FGetAutoGuider                           0x0006bca8   ARM Code     364  main.o(.text)
    FFindObjectAccDec                        0x0006be14   ARM Code     140  main.o(.text)
    FWeatherInputRight                       0x0006bea0   ARM Code       4  main.o(.text)
    FWeatherInputLeft                        0x0006bea4   ARM Code       4  main.o(.text)
    FWeatherInput                            0x0006bea8   ARM Code       4  main.o(.text)
    AdjustPlanetRise                         0x0006beac   ARM Code     976  main.o(.text)
    SetNowBestObject                         0x0006c27c   ARM Code    2196  main.o(.text)
    SetSkyPhObject                           0x0006cb10   ARM Code    1500  main.o(.text)
    FverifyInputLandmark                     0x0006d0ec   ARM Code     540  main.o(.text)
    FShowStart                               0x0006d308   ARM Code     832  main.o(.text)
    ASCOM                                    0x0006d648   ARM Code     568  main.o(.text)
    Skymap                                   0x0006d880   ARM Code     856  main.o(.text)
    main                                     0x0006dbd8   ARM Code   22544  main.o(.text)
    __printf                                 0x000733f5   Thumb Code   748  __printf.o(.text)
    _printf_return_value                     0x000736e1   Thumb Code     2  __printf.o(.text)
    _printf_percent                          0x000736e3   Thumb Code     2  __printf.o(.text)
    _printf_sizespec                         0x000736e5   Thumb Code     2  __printf.o(.text)
    _printf_pre_padding                      0x000736ed   Thumb Code    48  _printf_pad.o(.text)
    _printf_post_padding                     0x0007371d   Thumb Code    36  _printf_pad.o(.text)
    _printf_int_dec                          0x00073741   Thumb Code    98  _printf_dec.o(.text)
    Inline ARM to Thumb Veneer to __1sprintf 0x000737b4   ARM Code       0  __0sprintf.o(.text)
    __0sprintf                               0x000737bd   Thumb Code    40  __0sprintf.o(.text)
    __1sprintf                               0x000737bd   Thumb Code     0  __0sprintf.o(.text)
    Inline ARM to Thumb Veneer to atoi       0x000737e8   ARM Code       0  atoi.o(.text)
    atoi                                     0x000737f1   Thumb Code    30  atoi.o(.text)
    _scanf_longlong                          0x0007380f   Thumb Code   342  _scanf_longlong.o(.text)
    __aeabi_memcpy4                          0x00073964   ARM Code       0  rt_memcpy_w.o(.text)
    __aeabi_memcpy8                          0x00073964   ARM Code       0  rt_memcpy_w.o(.text)
    __rt_memcpy_w                            0x00073964   ARM Code     100  rt_memcpy_w.o(.text)
    _memcpy_lastbytes_aligned                0x000739b0   ARM Code       0  rt_memcpy_w.o(.text)
    Inline ARM to Thumb Veneer to strlen     0x000739c8   ARM Code       0  strlen.o(.text)
    strlen                                   0x000739d1   Thumb Code    68  strlen.o(.text)
    Inline Thumb to ARM Veneer to __aeabi_idivmod 0x00073a19   Thumb Code     0  aeabi_sdiv.o(.text)
    __aeabi_idiv                             0x00073a1c   ARM Code       0  aeabi_sdiv.o(.text)
    __aeabi_idivmod                          0x00073a1c   ARM Code     384  aeabi_sdiv.o(.text)
    __use_two_region_memory                  0x00073b9c   ARM Code       4  stkheap2.o(.text)
    __rt_stackheap_init                      0x00073ba0   ARM Code      36  stkheap2.o(.text)
    __rt_heap_extend                         0x00073bc4   ARM Code      24  stkheap2.o(.text)
    __rt_entry                               0x00073bdc   ARM Code      76  kernel.o(.text)
    __rt_exit                                0x00073c28   ARM Code      20  kernel.o(.text)
    __rt_abort                               0x00073c3c   ARM Code       8  kernel.o(.text)
    __user_setup_stackheap                   0x00073c44   ARM Code      96  sys_stackheap_outer.o(.text)
    Inline Thumb to ARM Veneer to __aeabi_errno_addr 0x00073ca5   Thumb Code     0  rt_errno_addr_intlibspace.o(.text)
    __aeabi_errno_addr                       0x00073ca8   ARM Code      12  rt_errno_addr_intlibspace.o(.text)
    __rt_errno_addr_intlibspace              0x00073ca8   ARM Code       0  rt_errno_addr_intlibspace.o(.text)
    __rt_stackheap_storage                   0x00073cb8   ARM Code      12  rt_stackheap_storage_intlibspace.o(.text)
    Inline Thumb to ARM Veneer to __aeabi_lmul 0x00073cc9   Thumb Code     0  llmul.o(.text)
    __aeabi_lmul                             0x00073ccc   ARM Code       0  llmul.o(.text)
    _ll_mul                                  0x00073ccc   ARM Code      28  llmul.o(.text)
    Inline ARM to Thumb Veneer to __set_errno 0x00073ce8   ARM Code       0  _rserrno.o(.text)
    __read_errno                             0x00073cf1   Thumb Code    14  _rserrno.o(.text)
    __set_errno                              0x00073cff   Thumb Code    12  _rserrno.o(.text)
    _printf_int_common                       0x00073d0b   Thumb Code   168  _printf_intcommon.o(.text)
    __lib_sel_fp_printf                      0x00073db5   Thumb Code     2  _printf_fp_dec.o(.text)
    _printf_fp_dec_real                      0x00073f9d   Thumb Code   696  _printf_fp_dec.o(.text)
    _printf_char_common                      0x00074255   Thumb Code    44  _printf_char_common.o(.text)
    _sputc                                   0x00074289   Thumb Code    10  _sputc.o(.text)
    _chval                                   0x00074293   Thumb Code    34  _chval.o(.text)
    Inline ARM to Thumb Veneer to __strtod_int 0x000742b4   ARM Code       0  strtod.o(.text)
    __strtod_int                             0x000742f9   Thumb Code    94  strtod.o(.text)
    strtol                                   0x00074369   Thumb Code   112  strtol.o(.text)
    Inline Thumb to ARM Veneer to __rt_udiv10 0x000743dd   Thumb Code     0  rtudiv10.o(.text)
    __rt_udiv10                              0x000743e0   ARM Code      44  rtudiv10.o(.text)
    __ARM_call_via_r0                        0x0007440d   Thumb Code     2  callvia.o(.text)
    __call_via_r0                            0x0007440d   Thumb Code     0  callvia.o(.text)
    __ARM_call_via_r1                        0x0007440f   Thumb Code     2  callvia.o(.text)
    __call_via_r1                            0x0007440f   Thumb Code     0  callvia.o(.text)
    __ARM_call_via_r2                        0x00074411   Thumb Code     2  callvia.o(.text)
    __call_via_r2                            0x00074411   Thumb Code     0  callvia.o(.text)
    __ARM_call_via_r3                        0x00074413   Thumb Code     2  callvia.o(.text)
    __call_via_r3                            0x00074413   Thumb Code     0  callvia.o(.text)
    __ARM_call_via_r4                        0x00074415   Thumb Code     2  callvia.o(.text)
    __call_via_r4                            0x00074415   Thumb Code     0  callvia.o(.text)
    __ARM_call_via_r5                        0x00074417   Thumb Code     2  callvia.o(.text)
    __call_via_r5                            0x00074417   Thumb Code     0  callvia.o(.text)
    __ARM_call_via_r6                        0x00074419   Thumb Code     2  callvia.o(.text)
    __call_via_r6                            0x00074419   Thumb Code     0  callvia.o(.text)
    __ARM_call_via_r7                        0x0007441b   Thumb Code     2  callvia.o(.text)
    __call_via_r7                            0x0007441b   Thumb Code     0  callvia.o(.text)
    _sys_exit                                0x0007441c   ARM Code      20  sys_exit.o(.text)
    __user_libspace                          0x00074434   ARM Code       8  libspace.o(.text)
    __user_perproc_libspace                  0x00074434   ARM Code       0  libspace.o(.text)
    __user_perthread_libspace                0x00074434   ARM Code       0  libspace.o(.text)
    Inline Thumb to ARM Veneer to __rt_ctype_table 0x00074441   Thumb Code     0  rt_ctype_table.o(.text)
    __rt_ctype_table                         0x00074444   ARM Code      24  rt_ctype_table.o(.text)
    Inline Thumb to ARM Veneer to __rt_locale 0x0007445d   Thumb Code     0  rt_locale_intlibspace.o(.text)
    __rt_locale                              0x00074460   ARM Code      12  rt_locale_intlibspace.o(.text)
    Inline Thumb to ARM Veneer to _ll_udiv10 0x00074471   Thumb Code     0  lludiv10.o(.text)
    _ll_udiv10                               0x00074474   ARM Code     160  lludiv10.o(.text)
    isspace                                  0x00074515   Thumb Code    22  isspace.o(.text)
    _btod_etento                             0x0007452d   Thumb Code   196  bigflt0.o(.text)
    _printf_outstr_char                      0x000745f5   Thumb Code    32  _printf_outstr_char.o(.text)
    _printf_input_char                       0x00074615   Thumb Code    10  _printf_input_char.o(.text)
    _sgetc                                   0x0007461f   Thumb Code    32  sgetc.o(.text)
    _sbackspace                              0x0007463f   Thumb Code    38  sgetc.o(.text)
    _strtoul                                 0x00074665   Thumb Code   166  _strtoul.o(.text)
    exit                                     0x0007470b   Thumb Code    12  exit.o(.text)
    Inline ARM to Thumb Veneer to __rt_lib_init 0x00074718   ARM Code       0  lib_init.o(.text)
    __rt_lib_init                            0x00074721   Thumb Code   184  lib_init.o(.text)
    __rt_lib_shutdown                        0x000747d9   Thumb Code    22  lib_init.o(.text)
    _platform_post_stackheap_init            0x000747f0   ARM Code      12  boardinit2.o(.text)
    _platform_post_lib_init                  0x000747fc   ARM Code      16  boardinit3.o(.text)
    __I_use_semihosting                      0x0007480c   ARM Code       0  use_no_semi.o(.text)
    __use_no_semihosting_swi                 0x0007480c   ARM Code       4  use_no_semi.o(.text)
    _scanf_really_real                       0x00074a29   Thumb Code   714  scanf_fp.o(.text)
    strcmp                                   0x00074cf4   ARM Code     156  strcmp.o(.text)
    __ARM_get_argv                           0x00074d95   Thumb Code     6  no_argv.o(.text)
    __rt_fp_status_addr                      0x00074d9c   ARM Code      12  rt_fp_status_addr_intlibspace.o(.text)
    Inline Thumb to ARM Veneer to __ARM_ll_mullu 0x00074dad   Thumb Code     0  llmullu.o(.text)
    __ARM_ll_mullu                           0x00074db0   ARM Code       8  llmullu.o(.text)
    _ll_mullu                                0x00074db0   ARM Code       0  llmullu.o(.text)
    Inline ARM to Thumb Veneer to _scanf_really_hex_real 0x00074db8   ARM Code       0  scanf_hexfp.o(.text)
    _scanf_really_hex_real                   0x00074dc1   Thumb Code   864  scanf_hexfp.o(.text)
    _scanf_really_infnan                     0x00075121   Thumb Code   430  scanf_hexfp.o(.text)
    Inline Thumb to ARM Veneer to __aeabi_llsl 0x000752f1   Thumb Code     0  llshl.o(.text)
    __aeabi_llsl                             0x000752f4   ARM Code       0  llshl.o(.text)
    _ll_shift_l                              0x000752f4   ARM Code      40  llshl.o(.text)
    __aeabi_uidiv                            0x0007531c   ARM Code       0  aeabi_sdiv.o(.text_udiv)
    __aeabi_uidivmod                         0x0007531c   ARM Code      28  aeabi_sdiv.o(.text_udiv)
    Inline Thumb to ARM Veneer to _btod_d2e  0x00075339   Thumb Code     0  btod.o(CL$$btod_d2e)
    _btod_d2e                                0x0007533c   ARM Code      56  btod.o(CL$$btod_d2e)
    _d2e_denorm_low                          0x00075374   ARM Code      84  btod.o(CL$$btod_d2e_denorm_low)
    _d2e_norm_op1                            0x000753c8   ARM Code     104  btod.o(CL$$btod_d2e_norm_op1)
    __btod_div_common                        0x00075430   ARM Code     716  btod.o(CL$$btod_div_common)
    _e2d                                     0x0007577c   ARM Code      96  btod.o(CL$$btod_e2d)
    _e2e                                     0x000757e0   ARM Code     220  btod.o(CL$$btod_e2e)
    Inline Thumb to ARM Veneer to _btod_ediv 0x000758bd   Thumb Code     0  btod.o(CL$$btod_ediv)
    _btod_ediv                               0x000758c0   ARM Code      52  btod.o(CL$$btod_ediv)
    Inline Thumb to ARM Veneer to _btod_edivd 0x000758f5   Thumb Code     0  btod.o(CL$$btod_edivd)
    _btod_edivd                              0x000758f8   ARM Code      52  btod.o(CL$$btod_edivd)
    Inline Thumb to ARM Veneer to _btod_emul 0x0007592d   Thumb Code     0  btod.o(CL$$btod_emul)
    _btod_emul                               0x00075930   ARM Code      52  btod.o(CL$$btod_emul)
    Inline Thumb to ARM Veneer to _btod_emuld 0x00075965   Thumb Code     0  btod.o(CL$$btod_emuld)
    _btod_emuld                              0x00075968   ARM Code      52  btod.o(CL$$btod_emuld)
    __btod_mult_common                       0x0007599c   ARM Code     616  btod.o(CL$$btod_mult_common)
    Long ARM to Thumb Veneer to __rt_lib_shutdown 0x00075c04   ARM Code       0  anon$$obj.o(Veneer$$Code)
    Short Thumb to ARM Veneer to __rt_exit   0x00075c11   Thumb Code     0  anon$$obj.o(Veneer$$Code)
    Short Thumb to ARM Veneer to _scanf_infnan 0x00075c19   Thumb Code     0  anon$$obj.o(Veneer$$Code)
    Long ARM to Thumb Veneer to __read_errno 0x00075c20   ARM Code       0  anon$$obj.o(Veneer$$Code)
    Long ARM to Thumb Veneer to _printf_fp_dec_real 0x00075c2c   ARM Code       0  anon$$obj.o(Veneer$$Code)
    Long ARM to Thumb Veneer to _scanf_really_real 0x00075c38   ARM Code       0  anon$$obj.o(Veneer$$Code)
    Long ARM to Thumb Veneer to _scanf_really_infnan 0x00075c44   ARM Code       0  anon$$obj.o(Veneer$$Code)
    __ARM_fpclassify                         0x00075c50   ARM Code      44  fpclassify.o(i.__ARM_fpclassify)
    __ieee754_rem_pio2                       0x00075c9c   ARM Code    1172  rred.o(i.__ieee754_rem_pio2)
    __kernel_cos                             0x00076148   ARM Code     372  cos_i.o(i.__kernel_cos)
    __kernel_poly                            0x000762d8   ARM Code     248  poly.o(i.__kernel_poly)
    __kernel_sin                             0x000763d0   ARM Code     364  sin_i.o(i.__kernel_sin)
    __kernel_tan                             0x00076548   ARM Code     976  tan_i.o(i.__kernel_tan)
    Inline Thumb to ARM Veneer to __mathlib_classify 0x00076919   Thumb Code     0  classify.o(i.__mathlib_classify)
    __mathlib_classify                       0x0007691c   ARM Code      56  classify.o(i.__mathlib_classify)
    Inline Thumb to ARM Veneer to __mathlib_narrow 0x00076955   Thumb Code     0  narrow.o(i.__mathlib_narrow)
    __mathlib_narrow                         0x00076958   ARM Code      36  narrow.o(i.__mathlib_narrow)
    __mathlib_tofloat                        0x0007697c   ARM Code     208  narrow.o(i.__mathlib_tofloat)
    Inline Thumb to ARM Veneer to __support_dtoi 0x00076a61   Thumb Code     0  dtoi.o(i.__support_dtoi)
    __support_dtoi                           0x00076a64   ARM Code      96  dtoi.o(i.__support_dtoi)
    Inline Thumb to ARM Veneer to __support_itod 0x00076ac5   Thumb Code     0  itod.o(i.__support_itod)
    __support_itod                           0x00076ac8   ARM Code      12  itod.o(i.__support_itod)
    Inline Thumb to ARM Veneer to __support_ldexp 0x00076ad5   Thumb Code     0  ldexp.o(i.__support_ldexp)
    __support_ldexp                          0x00076ad8   ARM Code      32  ldexp.o(i.__support_ldexp)
    acos                                     0x00076af8   ARM Code     984  acos.o(i.acos)
    asin                                     0x00076ed0   ARM Code    1000  asin.o(i.asin)
    atan                                     0x000772b8   ARM Code     840  atan.o(i.atan)
    atof                                     0x00077600   ARM Code      72  atof.o(i.atof)
    cos                                      0x00077650   ARM Code     212  cos.o(i.cos)
    frexp                                    0x0007773c   ARM Code     112  frexp.o(i.frexp)
    ldexp                                    0x000777b0   ARM Code     220  ldexp.o(i.ldexp)
    sin                                      0x000778a0   ARM Code     228  sin.o(i.sin)
    sqrt                                     0x0007799c   ARM Code     100  sqrt.o(i.sqrt)
    tan                                      0x00077a14   ARM Code     152  tan.o(i.tan)
    Inline Thumb to ARM Veneer to _get_lc_numeric 0x00077ac5   Thumb Code     0  lc_numeric_c.o(locale$$code)
    _get_lc_numeric                          0x00077ac8   ARM Code      80  lc_numeric_c.o(locale$$code)
    Inline Thumb to ARM Veneer to _get_lc_ctype 0x00077b19   Thumb Code     0  lc_ctype_c.o(locale$$code)
    _get_lc_ctype                            0x00077b1c   ARM Code      80  lc_ctype_c.o(locale$$code)
    __aeabi_d2f                              0x00077b6c   ARM Code       0  d2f.o(x$fpl$d2f)
    _d2f                                     0x00077b6c   ARM Code     168  d2f.o(x$fpl$d2f)
    __fpl_inf_d2f                            0x00077c0c   ARM Code       0  d2f.o(x$fpl$d2f)
    __aeabi_dadd                             0x00077c18   ARM Code       0  daddsub_noclz.o(x$fpl$dadd)
    _dadd                                    0x00077c18   ARM Code     452  daddsub_noclz.o(x$fpl$dadd)
    __fpl_inf_dadd                           0x00077d94   ARM Code       0  daddsub_noclz.o(x$fpl$dadd)
    __fpl_dcheck_NaN2                        0x00077dec   ARM Code      12  dcheck.o(x$fpl$dcheck)
    __fpl_dcheck_NaN1                        0x00077dfc   ARM Code      12  dcheck1.o(x$fpl$dcheck1)
    __fpl_dcmp_InfNaN                        0x00077e0c   ARM Code     128  dcmpin.o(x$fpl$dcmpinfnan)
    __fpl_inf_dcmp                           0x00077e30   ARM Code       0  dcmpin.o(x$fpl$dcmpinfnan)
    __fpl_fcmp_InfNaN                        0x00077e8c   ARM Code     100  fcmpin.o(x$fpl$dcmpinfnan)
    __fpl_inf_fcmp                           0x00077ea0   ARM Code       0  fcmpin.o(x$fpl$dcmpinfnan)
    __aeabi_ddiv                             0x00077ef0   ARM Code       0  ddiv.o(x$fpl$ddiv)
    _ddiv                                    0x00077ef0   ARM Code     464  ddiv.o(x$fpl$ddiv)
    __fpl_inf_ddiv                           0x0007807c   ARM Code       0  ddiv.o(x$fpl$ddiv)
    _ddiv_mantissas                          0x000780c0   ARM Code     608  ddiv.o(x$fpl$ddiv)
    __aeabi_cdcmpeq                          0x000783b0   ARM Code       0  deqf.o(x$fpl$deqf)
    _dcmpeq                                  0x000783b0   ARM Code     132  deqf.o(x$fpl$deqf)
    __aeabi_d2iz                             0x00078438   ARM Code       0  dfix.o(x$fpl$dfix)
    _dfix                                    0x00078438   ARM Code     172  dfix.o(x$fpl$dfix)
    __fpl_inf_dfix                           0x000784d8   ARM Code       0  dfix.o(x$fpl$dfix)
    __aeabi_i2d                              0x000784e8   ARM Code       0  dflt_noclz.o(x$fpl$dflt)
    _dflt                                    0x000784e8   ARM Code      88  dflt_noclz.o(x$fpl$dflt)
    __dflt_normalise                         0x000784f8   ARM Code       0  dflt_noclz.o(x$fpl$dflt)
    __aeabi_ui2d                             0x00078540   ARM Code       0  dflt_noclz.o(x$fpl$dfltu)
    _dfltu                                   0x00078540   ARM Code      12  dflt_noclz.o(x$fpl$dfltu)
    __aeabi_cdcmple                          0x0007854c   ARM Code       0  dleqf.o(x$fpl$dleqf)
    _dcmple                                  0x0007854c   ARM Code     132  dleqf.o(x$fpl$dleqf)
    __aeabi_dmul                             0x000785d4   ARM Code       0  dmul.o(x$fpl$dmul)
    _dmul                                    0x000785d4   ARM Code     460  dmul.o(x$fpl$dmul)
    __fpl_inf_dmul                           0x0007876c   ARM Code       0  dmul.o(x$fpl$dmul)
    _drem                                    0x000787b0   ARM Code     496  drem.o(x$fpl$drem)
    __fpl_inf_drem                           0x00078968   ARM Code       0  drem.o(x$fpl$drem)
    __aeabi_cdrcmple                         0x000789ac   ARM Code       0  drleqf.o(x$fpl$drleqf)
    _drcmple                                 0x000789ac   ARM Code     156  drleqf.o(x$fpl$drleqf)
    __aeabi_drsub                            0x00078a4c   ARM Code       0  daddsub_noclz.o(x$fpl$drsb)
    _drsb                                    0x00078a4c   ARM Code      24  daddsub_noclz.o(x$fpl$drsb)
    _dsqrt                                   0x00078a64   ARM Code     384  dsqrt.o(x$fpl$dsqrt)
    __fpl_inf_dsqrt                          0x00078bc8   ARM Code       0  dsqrt.o(x$fpl$dsqrt)
    __aeabi_dsub                             0x00078bec   ARM Code       0  daddsub_noclz.o(x$fpl$dsub)
    _dsub                                    0x00078bec   ARM Code     572  daddsub_noclz.o(x$fpl$dsub)
    __fpl_inf_dsub                           0x00078de0   ARM Code       0  daddsub_noclz.o(x$fpl$dsub)
    __dunder                                 0x00078e34   ARM Code     272  dunder.o(x$fpl$dunder)
    __dunder_d                               0x00078f44   ARM Code       4  dunder.o(x$fpl$dunder)
    __aeabi_f2d                              0x00078f48   ARM Code       0  f2d.o(x$fpl$f2d)
    _f2d                                     0x00078f48   ARM Code      96  f2d.o(x$fpl$f2d)
    __fpl_inf_f2d                            0x00078f9c   ARM Code       0  f2d.o(x$fpl$f2d)
    __aeabi_fadd                             0x00078fac   ARM Code       0  faddsub_noclz.o(x$fpl$fadd)
    _fadd                                    0x00078fac   ARM Code     260  faddsub_noclz.o(x$fpl$fadd)
    __fpl_inf_fadd                           0x00079088   ARM Code       0  faddsub_noclz.o(x$fpl$fadd)
    __fpl_fcheck_NaN2                        0x000790b4   ARM Code       8  fcheck.o(x$fpl$fcheck)
    __fpl_fcheck_NaN1                        0x000790c0   ARM Code       8  fcheck1.o(x$fpl$fcheck1)
    __aeabi_fdiv                             0x000790cc   ARM Code       0  fdiv.o(x$fpl$fdiv)
    _fdiv                                    0x000790cc   ARM Code     476  fdiv.o(x$fpl$fdiv)
    __fpl_inf_fdiv                           0x00079268   ARM Code       0  fdiv.o(x$fpl$fdiv)
    __aeabi_cfcmpeq                          0x000792b0   ARM Code       0  feqf.o(x$fpl$feqf)
    _fcmpeq                                  0x000792b0   ARM Code     116  feqf.o(x$fpl$feqf)
    __aeabi_f2iz                             0x00079328   ARM Code       0  ffix.o(x$fpl$ffix)
    _ffix                                    0x00079328   ARM Code     112  ffix.o(x$fpl$ffix)
    __fpl_inf_ffix                           0x0007938c   ARM Code       0  ffix.o(x$fpl$ffix)
    __aeabi_f2uiz                            0x0007939c   ARM Code       0  ffixu.o(x$fpl$ffixu)
    _ffixu                                   0x0007939c   ARM Code      92  ffixu.o(x$fpl$ffixu)
    __fpl_inf_ffixu                          0x000793f0   ARM Code       0  ffixu.o(x$fpl$ffixu)
    __aeabi_i2f                              0x000793fc   ARM Code       0  fflt_noclz.o(x$fpl$fflt)
    _fflt                                    0x000793fc   ARM Code      92  fflt_noclz.o(x$fpl$fflt)
    __fflt_normalise                         0x00079408   ARM Code       0  fflt_noclz.o(x$fpl$fflt)
    __aeabi_ui2f                             0x00079458   ARM Code       0  fflt_noclz.o(x$fpl$ffltu)
    _ffltu                                   0x00079458   ARM Code       8  fflt_noclz.o(x$fpl$ffltu)
    __aeabi_cfcmple                          0x00079460   ARM Code       0  fleqf.o(x$fpl$fleqf)
    _fcmple                                  0x00079460   ARM Code     116  fleqf.o(x$fpl$fleqf)
    __aeabi_fmul                             0x000794d8   ARM Code       0  fmul.o(x$fpl$fmul)
    _fmul                                    0x000794d8   ARM Code     260  fmul.o(x$fpl$fmul)
    __fpl_inf_fmul                           0x000795c0   ARM Code       0  fmul.o(x$fpl$fmul)
    __fpl_normalise2                         0x000795e0   ARM Code     148  fnorm2_noclz.o(x$fpl$fnorm2)
    Inline Thumb to ARM Veneer to _fp_init   0x00079675   Thumb Code     0  fpinit.o(x$fpl$fpinit)
    _fp_init                                 0x00079678   ARM Code      24  fpinit.o(x$fpl$fpinit)
    __fplib_config_pureend_doubles           0x00079688   ARM Code       0  fpinit.o(x$fpl$fpinit)
    __aeabi_cfrcmple                         0x00079690   ARM Code       0  frleqf.o(x$fpl$frleqf)
    _frcmple                                 0x00079690   ARM Code     128  frleqf.o(x$fpl$frleqf)
    __aeabi_frsub                            0x00079714   ARM Code       0  faddsub_noclz.o(x$fpl$frsb)
    _frsb                                    0x00079714   ARM Code      20  faddsub_noclz.o(x$fpl$frsb)
    __aeabi_fsub                             0x00079728   ARM Code       0  faddsub_noclz.o(x$fpl$fsub)
    _fsub                                    0x00079728   ARM Code     356  faddsub_noclz.o(x$fpl$fsub)
    __fpl_inf_fsub                           0x00079864   ARM Code       0  faddsub_noclz.o(x$fpl$fsub)
    __funder                                 0x00079890   ARM Code     140  funder.o(x$fpl$funder)
    __funder_d                               0x0007991c   ARM Code       4  funder.o(x$fpl$funder)
    Inline Thumb to ARM Veneer to __ieee_status 0x00079921   Thumb Code     0  istatus.o(x$fpl$ieeestatus)
    __ieee_status                            0x00079924   ARM Code       8  istatus.o(x$fpl$ieeestatus)
    Inline Thumb to ARM Veneer to _printf_fp_dec 0x0007992d   Thumb Code     0  printf1.o(x$fpl$printf1)
    _printf_fp_dec                           0x00079930   ARM Code       4  printf1.o(x$fpl$printf1)
    __fpl_return_NaN                         0x00079934   ARM Code     116  retnan.o(x$fpl$retnan)
    __ARM_scalbn                             0x000799a8   ARM Code       0  scalbn_noclz.o(x$fpl$scalbn)
    scalbn                                   0x000799a8   ARM Code     108  scalbn_noclz.o(x$fpl$scalbn)
    __fpl_inf_scalbn                         0x00079a10   ARM Code       0  scalbn_noclz.o(x$fpl$scalbn)
    Inline Thumb to ARM Veneer to _scanf_real 0x00079a15   Thumb Code     0  scanf1.o(x$fpl$scanf1)
    _scanf_real                              0x00079a18   ARM Code       4  scanf1.o(x$fpl$scanf1)
    Inline Thumb to ARM Veneer to _scanf_hex_real 0x00079a1d   Thumb Code     0  scanf2.o(x$fpl$scanf2)
    _scanf_hex_real                          0x00079a20   ARM Code       4  scanf2.o(x$fpl$scanf2)
    _scanf_infnan                            0x00079a24   ARM Code       4  scanf2.o(x$fpl$scanf2)
    __fpl_cmpreturn                          0x00079a28   ARM Code      60  trapv.o(x$fpl$trapveneer)
    CharD                                    0x00079a64   Data           6  main.o(.constdata)
    __I_use_fp                               0x00079a64   Number         0  usenofp.o(x$fpl$usenofp)
    CharS                                    0x00079a6a   Data           6  main.o(.constdata)
    CharM                                    0x00079a70   Data           6  main.o(.constdata)
    ZFTABLE                                  0x00079a78   Data        4352  main.o(.constdata)
    __mathlib_zero                           0x0007b230   Data           8  qnan.o(.constdata)
    Region$$Table$$Base                      0x0007b238   Number         0  anon$$obj.o(Region$$Table)
    Region$$Table$$Limit                     0x0007b258   Number         0  anon$$obj.o(Region$$Table)
    __aeabi_HUGE_VAL                         0x0007b258   Data           0  fpconst.o(c$$dinf)
    __aeabi_HUGE_VALL                        0x0007b258   Data           0  fpconst.o(c$$dinf)
    __aeabi_INFINITY                         0x0007b258   Data           0  fpconst.o(c$$dinf)
    __dInf                                   0x0007b258   Data           0  fpconst.o(c$$dinf)
    __huge_val                               0x0007b258   Data           0  fpconst.o(c$$dinf)
    __ctype                                  0x0007b289   Data           0  lc_ctype_c.o(locale$$data)
    Align_Star_NameEn                        0x40000000   Data         280  main.o(.data)
    Align_Star_NameCn                        0x40000118   Data         616  main.o(.data)
    g_sysmenu2201Cn                          0x40000380   Data          10  main.o(.data)
    g_sysmenu2202Cn                          0x4000038a   Data          10  main.o(.data)
    g_sysmenu2203Cn                          0x40000394   Data          10  main.o(.data)
    g_sysmenu2204Cn                          0x4000039e   Data          10  main.o(.data)
    g_sysmenu2205Cn                          0x400003a8   Data          10  main.o(.data)
    g_sysmenu2206Cn                          0x400003b2   Data           8  main.o(.data)
    g_sysmenu2207Cn                          0x400003ba   Data           8  main.o(.data)
    g_sysmenu2208Cn                          0x400003c2   Data           8  main.o(.data)
    g_sysmenu2209Cn                          0x400003ca   Data          10  main.o(.data)
    g_sysmenu22010Cn                         0x400003d4   Data          10  main.o(.data)
    g_sysmenu22011Cn                         0x400003de   Data          18  main.o(.data)
    g_sysmenu22012Cn                         0x400003f0   Data          34  main.o(.data)
    g_sysmenu2801Cn                          0x40000412   Data           6  main.o(.data)
    g_sysmenu2802Cn                          0x40000418   Data           6  main.o(.data)
    g_sysmenu2803Cn                          0x4000041e   Data           6  main.o(.data)
    g_sysmenu2804Cn                          0x40000424   Data           6  main.o(.data)
    g_sysmenu21101Cn                         0x4000042a   Data           6  main.o(.data)
    g_sysmenu21102Cn                         0x40000430   Data           6  main.o(.data)
    g_sysmenu21103Cn                         0x40000436   Data           6  main.o(.data)
    g_sysmenu3601Cn                          0x4000043c   Data           6  main.o(.data)
    g_sysmenu3602Cn                          0x40000442   Data           6  main.o(.data)
    g_sysmenu3801Cn                          0x40000448   Data           6  main.o(.data)
    g_sysmenu3802Cn                          0x4000044e   Data           6  main.o(.data)
    g_sysmenu4301Cn                          0x40000454   Data           6  main.o(.data)
    g_sysmenu4302Cn                          0x4000045a   Data          12  main.o(.data)
    g_sysmenu43021Cn                         0x40000466   Data           6  main.o(.data)
    g_sysmenu43022Cn                         0x4000046c   Data           6  main.o(.data)
    g_sysmenu43023Cn                         0x40000472   Data           6  main.o(.data)
    g_sysmenu43024Cn                         0x40000478   Data           6  main.o(.data)
    g_sysmenu4701Cn                          0x4000047e   Data          11  main.o(.data)
    g_sysmenu4702Cn                          0x40000489   Data           2  main.o(.data)
    g_sysmenu4703Cn                          0x4000048b   Data          16  main.o(.data)
    g_sysmenu4704Cn                          0x4000049b   Data          18  main.o(.data)
    g_sysmenu4705Cn                          0x400004ad   Data          12  main.o(.data)
    g_sysmenu4706Cn                          0x400004b9   Data          18  main.o(.data)
    g_sysmenu4707Cn                          0x400004cb   Data          12  main.o(.data)
    g_sysmenu4801Cn                          0x400004d7   Data           8  main.o(.data)
    g_sysmenu4802Cn                          0x400004df   Data           8  main.o(.data)
    g_sysmenu4803Cn                          0x400004e7   Data           8  main.o(.data)
    g_sysmenu4804Cn                          0x400004ef   Data           8  main.o(.data)
    g_OperateStatusCn1                       0x400004f7   Data          20  main.o(.data)
    g_OperateStatusCn2                       0x4000050b   Data          20  main.o(.data)
    g_OperateStatusCn3                       0x4000051f   Data          20  main.o(.data)
    g_OperateStatusCn4                       0x40000533   Data          20  main.o(.data)
    g_OperateStatusCn5                       0x40000547   Data          20  main.o(.data)
    g_sysalign1101Cn                         0x4000055b   Data          22  main.o(.data)
    g_sysalign1101Pause_Cn                   0x40000571   Data          22  main.o(.data)
    g_sysalign1102Cn                         0x40000587   Data          24  main.o(.data)
    g_sysalign1103Cn                         0x4000059f   Data          24  main.o(.data)
    g_sysalign1104Cn                         0x400005b7   Data          24  main.o(.data)
    g_sysalign1105Cn                         0x400005cf   Data          24  main.o(.data)
    g_sysalign1106Cn                         0x400005e7   Data          24  main.o(.data)
    g_sysalign1107Cn                         0x400005ff   Data          24  main.o(.data)
    g_sysalign1108Cn                         0x40000617   Data          24  main.o(.data)
    g_sysalign1109Cn                         0x4000062f   Data          24  main.o(.data)
    g_sysbacklash11101Cn                     0x40000647   Data          24  main.o(.data)
    g_sysbacklash11102Cn                     0x4000065f   Data          24  main.o(.data)
    g_sysbacklash11103Cn                     0x40000677   Data          24  main.o(.data)
    g_sysbacklash11104Cn                     0x4000068f   Data          24  main.o(.data)
    g_sysbacklash11105Cn                     0x400006a7   Data          24  main.o(.data)
    g_sysbacklash11106Cn                     0x400006bf   Data          24  main.o(.data)
    g_sysbacklash11107Cn                     0x400006d7   Data          24  main.o(.data)
    g_sysbacklash11108Cn                     0x400006ef   Data          24  main.o(.data)
    g_sysbacklash11109Cn                     0x40000707   Data          24  main.o(.data)
    g_sysbacklash111010Cn                    0x4000071f   Data          24  main.o(.data)
    g_sysbacklash111011Cn                    0x40000737   Data          24  main.o(.data)
    g_sysbacklash111012Cn                    0x4000074f   Data          24  main.o(.data)
    g_sysbacklash111013Cn                    0x40000767   Data          24  main.o(.data)
    g_sysbacklash111014Cn                    0x4000077f   Data          24  main.o(.data)
    g_sysbacklash111015Cn                    0x40000797   Data          24  main.o(.data)
    g_sysbacklash111016Cn                    0x400007af   Data          24  main.o(.data)
    g_sysbacklash111017Cn                    0x400007c7   Data          24  main.o(.data)
    g_sysbacklash111018Cn                    0x400007df   Data          24  main.o(.data)
    g_sysbacklash111019Cn                    0x400007f7   Data          24  main.o(.data)
    g_sysbacklash111020Cn                    0x4000080f   Data          24  main.o(.data)
    g_sysbacklash11205Cn                     0x40000827   Data          24  main.o(.data)
    g_sysbacklash11206Cn                     0x4000083f   Data          24  main.o(.data)
    g_sysNoTelescopeCn1                      0x40000857   Data          24  main.o(.data)
    g_sysNoTelescopeCn2                      0x4000086f   Data          24  main.o(.data)
    g_sysmainhelpCn1                         0x40000887   Data          18  main.o(.data)
    g_sysmainhelpCn2                         0x40000899   Data          18  main.o(.data)
    g_sysblank                               0x400008ab   Data           2  main.o(.data)
    g_sysmenu1000En                          0x400008ad   Data          16  main.o(.data)
    g_sysmenu2000En                          0x400008bd   Data          11  main.o(.data)
    g_sysmenu3000En                          0x400008c8   Data          10  main.o(.data)
    g_sysmenu4000En                          0x400008d2   Data           6  main.o(.data)
    g_sysmenu1100En                          0x400008d8   Data          15  main.o(.data)
    g_sysmenu1200En                          0x400008e7   Data          15  main.o(.data)
    g_sysmenu1300En                          0x400008f6   Data          17  main.o(.data)
    g_sysmenu1400En                          0x40000907   Data          12  main.o(.data)
    g_sysmenu1500En                          0x40000913   Data          16  main.o(.data)
    g_sysmenu1600En                          0x40000923   Data          16  main.o(.data)
    g_sysmenu1700En                          0x40000933   Data          17  main.o(.data)
    g_sysmenu2100En                          0x40000944   Data          13  main.o(.data)
    g_sysmenu2200En                          0x40000951   Data          14  main.o(.data)
    g_sysmenu2300En                          0x4000095f   Data          12  main.o(.data)
    g_sysmenu2400En                          0x4000096b   Data          15  main.o(.data)
    g_sysmenu2500En                          0x4000097a   Data          13  main.o(.data)
    g_sysmenu2600En                          0x40000987   Data          13  main.o(.data)
    g_sysmenu2700En                          0x40000994   Data          13  main.o(.data)
    g_sysmenu2800En                          0x400009a1   Data          17  main.o(.data)
    g_sysmenu2900En                          0x400009b2   Data          16  main.o(.data)
    g_sysmenu2110En                          0x400009c2   Data          17  main.o(.data)
    g_sysmenu2120En                          0x400009d3   Data          17  main.o(.data)
    g_sysmenu2130En                          0x400009e4   Data          17  main.o(.data)
    g_sysmenu3100En                          0x400009f5   Data          16  main.o(.data)
    g_sysmenu3200En                          0x40000a05   Data          16  main.o(.data)
    g_sysmenu3300En                          0x40000a15   Data          18  main.o(.data)
    g_sysmenu3400En                          0x40000a27   Data           6  main.o(.data)
    g_sysmenu3500En                          0x40000a2d   Data           6  main.o(.data)
    g_sysmenu3600En                          0x40000a33   Data          13  main.o(.data)
    g_sysmenu3700En                          0x40000a40   Data          15  main.o(.data)
    g_sysmenu3800En                          0x40000a4f   Data          17  main.o(.data)
    g_sysmenu3900En                          0x40000a60   Data          13  main.o(.data)
    g_sysmenu4100En                          0x40000a6d   Data          15  main.o(.data)
    g_sysmenu4200En                          0x40000a7c   Data          16  main.o(.data)
    g_sysmenu4300En                          0x40000a8c   Data          13  main.o(.data)
    g_sysmenu4400En                          0x40000a99   Data           9  main.o(.data)
    g_sysmenu4500En                          0x40000aa2   Data           9  main.o(.data)
    g_sysmenu4600En                          0x40000aab   Data          16  main.o(.data)
    g_sysmenu4700En                          0x40000abb   Data          14  main.o(.data)
    g_sysmenu4800En                          0x40000ac9   Data           9  main.o(.data)
    g_sysmenu4900En                          0x40000ad2   Data           6  main.o(.data)
    g_sysmenu2501En                          0x40000ad8   Data          16  main.o(.data)
    g_sysmenu2502En                          0x40000ae8   Data          12  main.o(.data)
    g_sysmenu2503En                          0x40000af4   Data          11  main.o(.data)
    g_sysmenu2801En                          0x40000aff   Data           7  main.o(.data)
    g_sysmenu2802En                          0x40000b06   Data           4  main.o(.data)
    g_sysmenu2803En                          0x40000b0a   Data           7  main.o(.data)
    g_sysmenu2804En                          0x40000b11   Data           7  main.o(.data)
    g_sysmenu21101En                         0x40000b18   Data           7  main.o(.data)
    g_sysmenu21102En                         0x40000b1f   Data           4  main.o(.data)
    g_sysmenu21103En                         0x40000b23   Data           7  main.o(.data)
    g_sysmenu3401En                          0x40000b2a   Data           6  main.o(.data)
    g_sysmenu3402En                          0x40000b30   Data          12  main.o(.data)
    g_sysmenu3501En                          0x40000b3c   Data           6  main.o(.data)
    g_sysmenu3502En                          0x40000b42   Data          11  main.o(.data)
    g_sysmenu3601En                          0x40000b4d   Data           8  main.o(.data)
    g_sysmenu3602En                          0x40000b55   Data           6  main.o(.data)
    g_sysmenu3801En                          0x40000b5b   Data          10  main.o(.data)
    g_sysmenu3802En                          0x40000b65   Data          10  main.o(.data)
    g_sysmenu4301En                          0x40000b6f   Data          15  main.o(.data)
    g_sysmenu4302En                          0x40000b7e   Data          12  main.o(.data)
    g_sysmenu43021En                         0x40000b8a   Data           7  main.o(.data)
    g_sysmenu43022En                         0x40000b91   Data           4  main.o(.data)
    g_sysmenu43023En                         0x40000b95   Data           7  main.o(.data)
    g_sysmenu43024En                         0x40000b9c   Data           7  main.o(.data)
    g_sysmenu4701En                          0x40000ba3   Data           7  main.o(.data)
    g_sysmenu4702En                          0x40000baa   Data           4  main.o(.data)
    g_sysmenu4703En                          0x40000bae   Data           7  main.o(.data)
    g_sysmenu4704En                          0x40000bb5   Data           7  main.o(.data)
    g_sysmenu4801En                          0x40000bbc   Data          11  main.o(.data)
    g_sysmenu4802En                          0x40000bc7   Data          12  main.o(.data)
    g_sysmenu4803En                          0x40000bd3   Data          11  main.o(.data)
    g_sysmenu4804En                          0x40000bde   Data          16  main.o(.data)
    g_sysalign1101En                         0x40000bee   Data          24  main.o(.data)
    g_sysalign1102En                         0x40000c06   Data          12  main.o(.data)
    g_sysalign1103En                         0x40000c12   Data          21  main.o(.data)
    g_sysalign1104En                         0x40000c27   Data          22  main.o(.data)
    g_sysalign1105En                         0x40000c3d   Data          21  main.o(.data)
    g_sysalign1106En                         0x40000c52   Data          26  main.o(.data)
    g_sysalign1107En                         0x40000c6c   Data          25  main.o(.data)
    g_sysalign1108En                         0x40000c85   Data          25  main.o(.data)
    g_sysalign1109En                         0x40000c9e   Data          24  main.o(.data)
    g_sysbacklash11101En                     0x40000cb6   Data          21  main.o(.data)
    g_sysbacklash11102En                     0x40000ccb   Data          21  main.o(.data)
    g_sysbacklash11103En                     0x40000ce0   Data          19  main.o(.data)
    g_sysbacklash11104En                     0x40000cf3   Data          11  main.o(.data)
    g_sysbacklash11105En                     0x40000cfe   Data          20  main.o(.data)
    g_sysbacklash11106En                     0x40000d12   Data          21  main.o(.data)
    g_sysbacklash11107En                     0x40000d27   Data          21  main.o(.data)
    g_sysbacklash11108En                     0x40000d3c   Data          21  main.o(.data)
    g_sysbacklash11109En                     0x40000d51   Data          13  main.o(.data)
    g_sysbacklash111010En                    0x40000d5e   Data          21  main.o(.data)
    g_sysbacklash111011En                    0x40000d73   Data          21  main.o(.data)
    g_sysbacklash111012En                    0x40000d88   Data          18  main.o(.data)
    g_sysbacklash111013En                    0x40000d9a   Data          22  main.o(.data)
    g_sysbacklash111014En                    0x40000db0   Data          23  main.o(.data)
    g_sysbacklash111015En                    0x40000dc7   Data          20  main.o(.data)
    g_sysbacklash111016En                    0x40000ddb   Data          22  main.o(.data)
    g_sysbacklash111017En                    0x40000df1   Data          17  main.o(.data)
    g_sysbacklash111018En                    0x40000e02   Data          22  main.o(.data)
    g_sysbacklash111019En                    0x40000e18   Data           1  main.o(.data)
    g_sysNoTelescopeEn1                      0x40000e19   Data          23  main.o(.data)
    g_sysNoTelescopeEn2                      0x40000e30   Data          22  main.o(.data)
    g_sysNoTelescopeEn3                      0x40000e46   Data          20  main.o(.data)
    g_sysmenu1000Ger                         0x40000e5a   Data          32  main.o(.data)
    g_sysmenu2000Ger                         0x40000e7a   Data          32  main.o(.data)
    g_sysmenu3000Ger                         0x40000e9a   Data          32  main.o(.data)
    g_sysmenu4000Ger                         0x40000eba   Data          32  main.o(.data)
    g_sysmenu1100Ger                         0x40000eda   Data          32  main.o(.data)
    g_sysmenu1200Ger                         0x40000efa   Data          32  main.o(.data)
    g_sysmenu1300Ger                         0x40000f1a   Data          32  main.o(.data)
    g_sysmenu1400Ger                         0x40000f3a   Data          32  main.o(.data)
    g_sysmenu1500Ger                         0x40000f5a   Data          32  main.o(.data)
    g_sysmenu1600Ger                         0x40000f7a   Data          32  main.o(.data)
    g_sysmenu1700Ger                         0x40000f9a   Data          32  main.o(.data)
    g_sysmenu2100Ger                         0x40000fba   Data          32  main.o(.data)
    g_sysmenu2200Ger                         0x40000fda   Data          32  main.o(.data)
    g_sysmenu2300Ger                         0x40000ffa   Data          32  main.o(.data)
    g_sysmenu2400Ger                         0x4000101a   Data          32  main.o(.data)
    g_sysmenu2500Ger                         0x4000103a   Data          32  main.o(.data)
    g_sysmenu2600Ger                         0x4000105a   Data          32  main.o(.data)
    g_sysmenu2700Ger                         0x4000107a   Data          32  main.o(.data)
    g_sysmenu2800Ger                         0x4000109a   Data          32  main.o(.data)
    g_sysmenu2900Ger                         0x400010ba   Data          32  main.o(.data)
    g_sysmenu2110Ger                         0x400010da   Data          32  main.o(.data)
    g_sysmenu2120Ger                         0x400010fa   Data          32  main.o(.data)
    g_sysmenu2130Ger                         0x4000111a   Data          32  main.o(.data)
    g_sysmenu3100Ger                         0x4000113a   Data          32  main.o(.data)
    g_sysmenu3200Ger                         0x4000115a   Data          32  main.o(.data)
    g_sysmenu3300Ger                         0x4000117a   Data          32  main.o(.data)
    g_sysmenu3400Ger                         0x4000119a   Data          32  main.o(.data)
    g_sysmenu3500Ger                         0x400011ba   Data          32  main.o(.data)
    g_sysmenu3600Ger                         0x400011da   Data          32  main.o(.data)
    g_sysmenu3700Ger                         0x400011fa   Data          32  main.o(.data)
    g_sysmenu3800Ger                         0x4000121a   Data          32  main.o(.data)
    g_sysmenu3900Ger                         0x4000123a   Data          32  main.o(.data)
    g_sysmenu4100Ger                         0x4000125a   Data          32  main.o(.data)
    g_sysmenu4200Ger                         0x4000127a   Data          32  main.o(.data)
    g_sysmenu4300Ger                         0x4000129a   Data          32  main.o(.data)
    g_sysmenu4400Ger                         0x400012ba   Data          32  main.o(.data)
    g_sysmenu4500Ger                         0x400012da   Data          32  main.o(.data)
    g_sysmenu4600Ger                         0x400012fa   Data          32  main.o(.data)
    g_sysmenu4700Ger                         0x4000131a   Data          32  main.o(.data)
    g_sysmenu4800Ger                         0x4000133a   Data          32  main.o(.data)
    g_sysmenu4900Ger                         0x4000135a   Data          32  main.o(.data)
    g_sysmenu1000Fre                         0x4000137a   Data          32  main.o(.data)
    g_sysmenu2000Fre                         0x4000139a   Data          32  main.o(.data)
    g_sysmenu3000Fre                         0x400013ba   Data          32  main.o(.data)
    g_sysmenu4000Fre                         0x400013da   Data          32  main.o(.data)
    g_sysmenu1100Fre                         0x400013fa   Data          32  main.o(.data)
    g_sysmenu1200Fre                         0x4000141a   Data          32  main.o(.data)
    g_sysmenu1300Fre                         0x4000143a   Data          32  main.o(.data)
    g_sysmenu1400Fre                         0x4000145a   Data          32  main.o(.data)
    g_sysmenu1500Fre                         0x4000147a   Data          32  main.o(.data)
    g_sysmenu1600Fre                         0x4000149a   Data          32  main.o(.data)
    g_sysmenu1700Fre                         0x400014ba   Data          32  main.o(.data)
    g_sysmenu2100Fre                         0x400014da   Data          32  main.o(.data)
    g_sysmenu2200Fre                         0x400014fa   Data          32  main.o(.data)
    g_sysmenu2300Fre                         0x4000151a   Data          32  main.o(.data)
    g_sysmenu2400Fre                         0x4000153a   Data          32  main.o(.data)
    g_sysmenu2500Fre                         0x4000155a   Data          32  main.o(.data)
    g_sysmenu2600Fre                         0x4000157a   Data          32  main.o(.data)
    g_sysmenu2700Fre                         0x4000159a   Data          32  main.o(.data)
    g_sysmenu2800Fre                         0x400015ba   Data          32  main.o(.data)
    g_sysmenu2900Fre                         0x400015da   Data          32  main.o(.data)
    g_sysmenu2110Fre                         0x400015fa   Data          32  main.o(.data)
    g_sysmenu2120Fre                         0x4000161a   Data          32  main.o(.data)
    g_sysmenu2130Fre                         0x4000163a   Data          32  main.o(.data)
    g_sysmenu3100Fre                         0x4000165a   Data          32  main.o(.data)
    g_sysmenu3200Fre                         0x4000167a   Data          32  main.o(.data)
    g_sysmenu3300Fre                         0x4000169a   Data          32  main.o(.data)
    g_sysmenu3400Fre                         0x400016ba   Data          32  main.o(.data)
    g_sysmenu3500Fre                         0x400016da   Data          32  main.o(.data)
    g_sysmenu3600Fre                         0x400016fa   Data          32  main.o(.data)
    g_sysmenu3700Fre                         0x4000171a   Data          32  main.o(.data)
    g_sysmenu3800Fre                         0x4000173a   Data          32  main.o(.data)
    g_sysmenu3900Fre                         0x4000175a   Data          32  main.o(.data)
    g_sysmenu4100Fre                         0x4000177a   Data          32  main.o(.data)
    g_sysmenu4200Fre                         0x4000179a   Data          32  main.o(.data)
    g_sysmenu4300Fre                         0x400017ba   Data          32  main.o(.data)
    g_sysmenu4400Fre                         0x400017da   Data          32  main.o(.data)
    g_sysmenu4500Fre                         0x400017fa   Data          32  main.o(.data)
    g_sysmenu4600Fre                         0x4000181a   Data          32  main.o(.data)
    g_sysmenu4700Fre                         0x4000183a   Data          32  main.o(.data)
    g_sysmenu4800Fre                         0x4000185a   Data          32  main.o(.data)
    g_sysmenu4900Fre                         0x4000187a   Data          32  main.o(.data)
    g_sysmenu1000Ita                         0x4000189a   Data          32  main.o(.data)
    g_sysmenu2000Ita                         0x400018ba   Data          32  main.o(.data)
    g_sysmenu3000Ita                         0x400018da   Data          32  main.o(.data)
    g_sysmenu4000Ita                         0x400018fa   Data          32  main.o(.data)
    g_sysmenu1100Ita                         0x4000191a   Data          32  main.o(.data)
    g_sysmenu1200Ita                         0x4000193a   Data          32  main.o(.data)
    g_sysmenu1300Ita                         0x4000195a   Data          32  main.o(.data)
    g_sysmenu1400Ita                         0x4000197a   Data          32  main.o(.data)
    g_sysmenu1500Ita                         0x4000199a   Data          32  main.o(.data)
    g_sysmenu1600Ita                         0x400019ba   Data          32  main.o(.data)
    g_sysmenu1700Ita                         0x400019da   Data          32  main.o(.data)
    g_sysmenu2100Ita                         0x400019fa   Data          32  main.o(.data)
    g_sysmenu2200Ita                         0x40001a1a   Data          32  main.o(.data)
    g_sysmenu2300Ita                         0x40001a3a   Data          32  main.o(.data)
    g_sysmenu2400Ita                         0x40001a5a   Data          32  main.o(.data)
    g_sysmenu2500Ita                         0x40001a7a   Data          32  main.o(.data)
    g_sysmenu2600Ita                         0x40001a9a   Data          32  main.o(.data)
    g_sysmenu2700Ita                         0x40001aba   Data          32  main.o(.data)
    g_sysmenu2800Ita                         0x40001ada   Data          32  main.o(.data)
    g_sysmenu2900Ita                         0x40001afa   Data          32  main.o(.data)
    g_sysmenu2110Ita                         0x40001b1a   Data          32  main.o(.data)
    g_sysmenu2120Ita                         0x40001b3a   Data          32  main.o(.data)
    g_sysmenu2130Ita                         0x40001b5a   Data          32  main.o(.data)
    g_sysmenu3100Ita                         0x40001b7a   Data          32  main.o(.data)
    g_sysmenu3200Ita                         0x40001b9a   Data          32  main.o(.data)
    g_sysmenu3300Ita                         0x40001bba   Data          32  main.o(.data)
    g_sysmenu3400Ita                         0x40001bda   Data          32  main.o(.data)
    g_sysmenu3500Ita                         0x40001bfa   Data          32  main.o(.data)
    g_sysmenu3600Ita                         0x40001c1a   Data          32  main.o(.data)
    g_sysmenu3700Ita                         0x40001c3a   Data          32  main.o(.data)
    g_sysmenu3800Ita                         0x40001c5a   Data          32  main.o(.data)
    g_sysmenu3900Ita                         0x40001c7a   Data          32  main.o(.data)
    g_sysmenu4100Ita                         0x40001c9a   Data          32  main.o(.data)
    g_sysmenu4200Ita                         0x40001cba   Data          32  main.o(.data)
    g_sysmenu4300Ita                         0x40001cda   Data          32  main.o(.data)
    g_sysmenu4400Ita                         0x40001cfa   Data          32  main.o(.data)
    g_sysmenu4500Ita                         0x40001d1a   Data          32  main.o(.data)
    g_sysmenu4600Ita                         0x40001d3a   Data          32  main.o(.data)
    g_sysmenu4700Ita                         0x40001d5a   Data          32  main.o(.data)
    g_sysmenu4800Ita                         0x40001d7a   Data          32  main.o(.data)
    g_sysmenu4900Ita                         0x40001d9a   Data          32  main.o(.data)
    g_sysmenu1000Spa                         0x40001dba   Data          32  main.o(.data)
    g_sysmenu2000Spa                         0x40001dda   Data          32  main.o(.data)
    g_sysmenu3000Spa                         0x40001dfa   Data          32  main.o(.data)
    g_sysmenu4000Spa                         0x40001e1a   Data          32  main.o(.data)
    g_sysmenu1100Spa                         0x40001e3a   Data          32  main.o(.data)
    g_sysmenu1200Spa                         0x40001e5a   Data          32  main.o(.data)
    g_sysmenu1300Spa                         0x40001e7a   Data          32  main.o(.data)
    g_sysmenu1400Spa                         0x40001e9a   Data          32  main.o(.data)
    g_sysmenu1500Spa                         0x40001eba   Data          32  main.o(.data)
    g_sysmenu1600Spa                         0x40001eda   Data          32  main.o(.data)
    g_sysmenu1700Spa                         0x40001efa   Data          32  main.o(.data)
    g_sysmenu2100Spa                         0x40001f1a   Data          32  main.o(.data)
    g_sysmenu2200Spa                         0x40001f3a   Data          32  main.o(.data)
    g_sysmenu2300Spa                         0x40001f5a   Data          32  main.o(.data)
    g_sysmenu2400Spa                         0x40001f7a   Data          32  main.o(.data)
    g_sysmenu2500Spa                         0x40001f9a   Data          32  main.o(.data)
    g_sysmenu2600Spa                         0x40001fba   Data          32  main.o(.data)
    g_sysmenu2700Spa                         0x40001fda   Data          32  main.o(.data)
    g_sysmenu2800Spa                         0x40001ffa   Data          32  main.o(.data)
    g_sysmenu2900Spa                         0x4000201a   Data          32  main.o(.data)
    g_sysmenu2110Spa                         0x4000203a   Data          32  main.o(.data)
    g_sysmenu2120Spa                         0x4000205a   Data          32  main.o(.data)
    g_sysmenu2130Spa                         0x4000207a   Data          32  main.o(.data)
    g_sysmenu3100Spa                         0x4000209a   Data          32  main.o(.data)
    g_sysmenu3200Spa                         0x400020ba   Data          32  main.o(.data)
    g_sysmenu3300Spa                         0x400020da   Data          32  main.o(.data)
    g_sysmenu3400Spa                         0x400020fa   Data          32  main.o(.data)
    g_sysmenu3500Spa                         0x4000211a   Data          32  main.o(.data)
    g_sysmenu3600Spa                         0x4000213a   Data          32  main.o(.data)
    g_sysmenu3700Spa                         0x4000215a   Data          32  main.o(.data)
    g_sysmenu3800Spa                         0x4000217a   Data          32  main.o(.data)
    g_sysmenu3900Spa                         0x4000219a   Data          32  main.o(.data)
    g_sysmenu4100Spa                         0x400021ba   Data          32  main.o(.data)
    g_sysmenu4200Spa                         0x400021da   Data          32  main.o(.data)
    g_sysmenu4300Spa                         0x400021fa   Data          32  main.o(.data)
    g_sysmenu4400Spa                         0x4000221a   Data          32  main.o(.data)
    g_sysmenu4500Spa                         0x4000223a   Data          32  main.o(.data)
    g_sysmenu4600Spa                         0x4000225a   Data          32  main.o(.data)
    g_sysmenu4700Spa                         0x4000227a   Data          32  main.o(.data)
    g_sysmenu4800Spa                         0x4000229a   Data          32  main.o(.data)
    g_sysmenu4900Spa                         0x400022ba   Data          32  main.o(.data)
    g_sysmenu2900title                       0x400022da   Data          16  main.o(.data)
    g_sysmenu2900ra                          0x400022ea   Data          16  main.o(.data)
    g_sysmenu2900dec                         0x400022fa   Data          16  main.o(.data)
    g_sysmenu3601lov_teltype1                0x4000230a   Data          21  main.o(.data)
    g_sysmenu3601lov_data1                   0x4000231f   Data          18  main.o(.data)
    g_sysmenu3601lov_teltype2                0x40002331   Data          21  main.o(.data)
    g_sysmenu3601lov_data2                   0x40002346   Data          18  main.o(.data)
    g_sysmenu3601lov_teltype3                0x40002358   Data          21  main.o(.data)
    g_sysmenu3601lov_data3                   0x4000236d   Data          18  main.o(.data)
    g_sysmenu3601lov_teltype1En              0x4000237f   Data          19  main.o(.data)
    g_sysmenu3601lov_data1En                 0x40002392   Data          12  main.o(.data)
    g_sysmenu3601lov_teltype2En              0x4000239e   Data          19  main.o(.data)
    g_sysmenu3601lov_data2En                 0x400023b1   Data          12  main.o(.data)
    g_sysmenu3601lov_teltype3En              0x400023bd   Data          21  main.o(.data)
    g_sysmenu3601lov_data3En                 0x400023d2   Data          12  main.o(.data)
    g_sysmenu3601menu1                       0x400023de   Data          21  main.o(.data)
    g_sysmenu3601menu2                       0x400023f3   Data          21  main.o(.data)
    g_sysmenu3601menu3                       0x40002408   Data          21  main.o(.data)
    g_sysmenu3601menu1En                     0x4000241d   Data          19  main.o(.data)
    g_sysmenu3601menu2En                     0x40002430   Data          19  main.o(.data)
    g_sysmenu3601menu3En                     0x40002443   Data          21  main.o(.data)
    g_sysmenu3602m_title                     0x40002458   Data          20  main.o(.data)
    g_sysmenu3602m_mf                        0x4000246c   Data          13  main.o(.data)
    g_sysmenu3602m_sf                        0x40002479   Data          11  main.o(.data)
    g_sysmenu3602m_data                      0x40002484   Data          21  main.o(.data)
    g_sysmenu3602m_titleEn                   0x40002499   Data          20  main.o(.data)
    g_sysmenu3602m_titleEn1                  0x400024ad   Data          20  main.o(.data)
    g_sysmenu3602m_mfEn                      0x400024c1   Data          13  main.o(.data)
    g_sysmenu3602m_sfEn                      0x400024ce   Data          11  main.o(.data)
    g_sysmenu3602m_mfovEn                    0x400024d9   Data          14  main.o(.data)
    g_sysmenu3602m_dataEn                    0x400024e7   Data          21  main.o(.data)
    g_sysmenu3602m_dataEn1                   0x400024fc   Data          24  main.o(.data)
    g_sysmenu2110m_1                         0x40002514   Data           1  main.o(.data)
    g_sysmenu2110m_2                         0x40002515   Data          32  main.o(.data)
    g_sysmenu2110m_3                         0x40002535   Data          32  main.o(.data)
    g_sysmenu2110m_4                         0x40002555   Data          32  main.o(.data)
    g_sysmenu2110m_1En                       0x40002575   Data           1  main.o(.data)
    g_sysmenu2110m_2En                       0x40002576   Data          14  main.o(.data)
    g_sysmenu2110m_3En                       0x40002584   Data          20  main.o(.data)
    g_sysmenu2110m_4En                       0x40002598   Data          20  main.o(.data)
    g_sysmenu2801m_1                         0x400025ac   Data           1  main.o(.data)
    g_sysmenu2802m_2                         0x400025ad   Data          36  main.o(.data)
    g_sysmenu2803m_3                         0x400025d1   Data          37  main.o(.data)
    g_sysmenu2804m_4                         0x400025f6   Data          38  main.o(.data)
    g_sysmenu2801m_1En                       0x4000261c   Data           1  main.o(.data)
    g_sysmenu2802m_2En                       0x4000261d   Data          15  main.o(.data)
    g_sysmenu2803m_3En                       0x4000262c   Data          16  main.o(.data)
    g_sysmenu2804m_4En                       0x4000263c   Data          17  main.o(.data)
    g_sysmenu4100date                        0x4000264d   Data          11  main.o(.data)
    g_sysmenu4100time                        0x40002658   Data           8  main.o(.data)
    g_sysmenu4300citycountry                 0x40002660   Data           5  main.o(.data)
    g_sysmenu4300cityname                    0x40002665   Data           5  main.o(.data)
    g_sysmenu4300citylon                     0x4000266a   Data          24  main.o(.data)
    g_sysmenu4300citylat                     0x40002682   Data          23  main.o(.data)
    g_sysmenu4300cityzone                    0x40002699   Data          16  main.o(.data)
    g_sysmenu4300cityalt                     0x400026a9   Data          18  main.o(.data)
    g_sysmenu4300sitename                    0x400026bb   Data          24  main.o(.data)
    g_sysmenu4300sitelon                     0x400026d3   Data          24  main.o(.data)
    g_sysmenu4300sitelat                     0x400026eb   Data          23  main.o(.data)
    g_sysmenu4300sitezone                    0x40002702   Data          16  main.o(.data)
    g_sysmenu4300sitealt                     0x40002712   Data          18  main.o(.data)
    g_sysmenu4400temperatrue                 0x40002724   Data          15  main.o(.data)
    g_sysmenu4400humidity                    0x40002733   Data          15  main.o(.data)
    g_sysmenu4400airpressure                 0x40002742   Data          19  main.o(.data)
    g_sysmenu4500sky                         0x40002755   Data           9  main.o(.data)
    g_sysmenu4500land                        0x4000275e   Data           9  main.o(.data)
    g_sysmenu4600az                          0x40002767   Data          13  main.o(.data)
    g_sysmenu4600eq                          0x40002774   Data          13  main.o(.data)
    g_sysmenu4700AziZero                     0x40002781   Data           9  main.o(.data)
    g_sysmenu4700AltZero                     0x4000278a   Data           9  main.o(.data)
    g_sysmenu4900cn                          0x40002793   Data           5  main.o(.data)
    g_sysmenu4900en                          0x40002798   Data           5  main.o(.data)
    g_sysmenu4900jn                          0x4000279d   Data           5  main.o(.data)
    g_sysmenu4900fn                          0x400027a2   Data           5  main.o(.data)
    g_sysmenu1600umia_raEn                   0x400027a7   Data          16  main.o(.data)
    g_sysmenu1600umia_decEn                  0x400027b7   Data          16  main.o(.data)
    g_sysmenu2900titleEn                     0x400027c7   Data          16  main.o(.data)
    g_sysmenu2900raEn                        0x400027d7   Data          16  main.o(.data)
    g_sysmenu2900decEn                       0x400027e7   Data          16  main.o(.data)
    g_sysmenu2900NameEn                      0x400027f7   Data          13  main.o(.data)
    g_sCountryEn                             0x40002804   Data          14  main.o(.data)
    g_sCityEn                                0x40002812   Data          13  main.o(.data)
    g_sysmenu4300sitenameEn                  0x4000281f   Data          16  main.o(.data)
    g_sysmenu4300sitelonEn                   0x4000282f   Data          16  main.o(.data)
    g_sysmenu4300sitelatEn                   0x4000283f   Data          15  main.o(.data)
    g_sysmenu4300sitezoneEn                  0x4000284e   Data          11  main.o(.data)
    g_sysmenu4300sitealtEn                   0x40002859   Data          13  main.o(.data)
    g_sysmenu4400temperatrueEn               0x40002866   Data          10  main.o(.data)
    g_sysmenu4400humidityEn                  0x40002870   Data          10  main.o(.data)
    g_sysmenu4400airpressureEn               0x4000287a   Data          12  main.o(.data)
    g_sysmenu4500skyEn                       0x40002886   Data          11  main.o(.data)
    g_sysmenu4500landEn                      0x40002891   Data          12  main.o(.data)
    g_sysmenu4600azEn                        0x4000289d   Data          14  main.o(.data)
    g_sysmenu4600eqEn                        0x400028ab   Data          14  main.o(.data)
    g_sysmenu4700TitleEn                     0x400028b9   Data          22  main.o(.data)
    g_sysmenu4700AziZeroEn                   0x400028cf   Data          10  main.o(.data)
    g_sysmenu4700AltZeroEn                   0x400028d9   Data          10  main.o(.data)
    g_sysmenu4700AltZeroErrorEn              0x400028e3   Data          22  main.o(.data)
    g_sysmenu4700AltZeroOkEn                 0x400028f9   Data          21  main.o(.data)
    g_sysmenu4900enEn                        0x4000290e   Data           8  main.o(.data)
    g_sysmenu4900gerEn                       0x40002916   Data           7  main.o(.data)
    g_sysmenu4900freEn                       0x4000291d   Data           7  main.o(.data)
    g_sysmenu4900itaEn                       0x40002924   Data           8  main.o(.data)
    g_sysmenu4900spaEn                       0x4000292c   Data           8  main.o(.data)
    g_sysmenu3401off                         0x40002934   Data          14  main.o(.data)
    g_sysmenu3402off                         0x40002942   Data           7  main.o(.data)
    g_sysmenu3403off                         0x40002949   Data           1  main.o(.data)
    g_sysmenu3404off                         0x4000294a   Data          25  main.o(.data)
    g_sysmenu3401on                          0x40002963   Data          11  main.o(.data)
    g_sysmenu3402on                          0x4000296e   Data          11  main.o(.data)
    g_sysmenu3403on                          0x40002979   Data           7  main.o(.data)
    g_sysmenu3404on                          0x40002980   Data          25  main.o(.data)
    g_sysmenu3401offEn                       0x40002999   Data          11  main.o(.data)
    g_sysmenu3402offEn                       0x400029a4   Data           7  main.o(.data)
    g_sysmenu3403offEn                       0x400029ab   Data           1  main.o(.data)
    g_sysmenu3404offEn                       0x400029ac   Data          22  main.o(.data)
    g_sysmenu3401onEn                        0x400029c2   Data          16  main.o(.data)
    g_sysmenu3402onEn                        0x400029d2   Data          13  main.o(.data)
    g_sysmenu3403onEn                        0x400029df   Data           7  main.o(.data)
    g_sysmenu3404onEn                        0x400029e6   Data          22  main.o(.data)
    g_sysmenu3500alarm_off1                  0x400029fc   Data          15  main.o(.data)
    g_sysmenu3500alarm_off2                  0x40002a0b   Data           1  main.o(.data)
    g_sysmenu3500alarm_off3                  0x40002a0c   Data           1  main.o(.data)
    g_sysmenu3500alarm_off4                  0x40002a0d   Data          25  main.o(.data)
    g_sysmenu3500alarm_title                 0x40002a26   Data          17  main.o(.data)
    g_sysmenu3500alarm_input                 0x40002a37   Data          10  main.o(.data)
    g_sysmenu3500alarm_onoff                 0x40002a41   Data          25  main.o(.data)
    g_sysmenu3500alarm_off1En                0x40002a5a   Data          13  main.o(.data)
    g_sysmenu3500alarm_off2En                0x40002a67   Data           1  main.o(.data)
    g_sysmenu3500alarm_off3En                0x40002a68   Data           1  main.o(.data)
    g_sysmenu3500alarm_off4En                0x40002a69   Data          22  main.o(.data)
    g_sysmenu3500alarm_titleEn               0x40002a7f   Data          13  main.o(.data)
    g_sysmenu3500alarm_inputEn               0x40002a8c   Data          10  main.o(.data)
    g_sysmenu3500alarm_onoffEn               0x40002a96   Data          21  main.o(.data)
    g_sysmenu380011                          0x40002aab   Data           9  main.o(.data)
    g_sysmenu380012                          0x40002ab4   Data          13  main.o(.data)
    g_sysmenu380013                          0x40002ac1   Data           1  main.o(.data)
    g_sysmenu380014                          0x40002ac2   Data           1  main.o(.data)
    g_sysmenu380011En                        0x40002ac3   Data          17  main.o(.data)
    g_sysmenu380012En                        0x40002ad4   Data          18  main.o(.data)
    g_sysmenu380013En                        0x40002ae6   Data           1  main.o(.data)
    g_sysmenu380014En                        0x40002ae7   Data           1  main.o(.data)
    g_sysmenu390011                          0x40002ae8   Data           9  main.o(.data)
    g_sysmenu390012                          0x40002af1   Data          14  main.o(.data)
    g_sysmenu390013                          0x40002aff   Data           1  main.o(.data)
    g_sysmenu390014                          0x40002b00   Data           1  main.o(.data)
    g_sysmenu390011En                        0x40002b01   Data          14  main.o(.data)
    g_sysmenu390012En                        0x40002b0f   Data          10  main.o(.data)
    g_sysmenu390013En                        0x40002b19   Data           1  main.o(.data)
    g_sysmenu390014En                        0x40002b1a   Data           1  main.o(.data)
    g_sysmenu390021                          0x40002b1b   Data           9  main.o(.data)
    g_sysmenu390022                          0x40002b24   Data          14  main.o(.data)
    g_sysmenu390023                          0x40002b32   Data           1  main.o(.data)
    g_sysmenu390024                          0x40002b33   Data           1  main.o(.data)
    g_sysmenu390021En                        0x40002b34   Data          14  main.o(.data)
    g_sysmenu390022En                        0x40002b42   Data          11  main.o(.data)
    g_sysmenu390023En                        0x40002b4d   Data           1  main.o(.data)
    g_sysmenu390024En                        0x40002b4e   Data           1  main.o(.data)
    g_sysmenu420011                          0x40002b4f   Data           9  main.o(.data)
    g_sysmenu420012                          0x40002b58   Data          14  main.o(.data)
    g_sysmenu420013                          0x40002b66   Data           1  main.o(.data)
    g_sysmenu420014                          0x40002b67   Data           1  main.o(.data)
    g_sysmenu420011En                        0x40002b68   Data          16  main.o(.data)
    g_sysmenu420012En                        0x40002b78   Data          10  main.o(.data)
    g_sysmenu420013En                        0x40002b82   Data           1  main.o(.data)
    g_sysmenu420014En                        0x40002b83   Data           1  main.o(.data)
    g_sysmenu420021                          0x40002b84   Data           9  main.o(.data)
    g_sysmenu420022                          0x40002b8d   Data          14  main.o(.data)
    g_sysmenu420023                          0x40002b9b   Data           1  main.o(.data)
    g_sysmenu420024                          0x40002b9c   Data           1  main.o(.data)
    g_sysmenu420021En                        0x40002b9d   Data          16  main.o(.data)
    g_sysmenu420022En                        0x40002bad   Data          11  main.o(.data)
    g_sysmenu420023En                        0x40002bb8   Data           1  main.o(.data)
    g_sysmenu420024En                        0x40002bb9   Data           1  main.o(.data)
    KeyFIFO                                  0x40002bf0   Data           8  main.o(.data)
    KeyPf                                    0x40002bf8   Data           1  main.o(.data)
    KeyPr                                    0x40002bf9   Data           1  main.o(.data)
    KeyTime                                  0x40002bfa   Data           1  main.o(.data)
    KeyDirTime                               0x40002bfb   Data           1  main.o(.data)
    KeyChar                                  0x40002bfc   Data           1  main.o(.data)
    KeyDir                                   0x40002bfd   Data           1  main.o(.data)
    RTCms                                    0x40002bfe   Data           1  main.o(.data)
    BuzCount                                 0x40002bff   Data           1  main.o(.data)
    BuzOnTime                                0x40002c00   Data           1  main.o(.data)
    BuzOffTime                               0x40002c01   Data           1  main.o(.data)
    rcv_datanum0                             0x40002c02   Data           1  main.o(.data)
    rcv_neworder0                            0x40002c03   Data           1  main.o(.data)
    rcv_headernum0                           0x40002c04   Data           1  main.o(.data)
    rcv_header0                              0x40002c05   Data           4  main.o(.data)
    rcv_temp0                                0x40002c09   Data           1  main.o(.data)
    rcv_datanum1                             0x40002c0a   Data           1  main.o(.data)
    rcv_neworder1                            0x40002c0b   Data           1  main.o(.data)
    rcv_headernum1                           0x40002c0c   Data           1  main.o(.data)
    rcv_header1                              0x40002c0d   Data           4  main.o(.data)
    rcv_temp1                                0x40002c11   Data           1  main.o(.data)
    g_mTelescopeConType                      0x40002c12   Data           1  main.o(.data)
    AGuiderRa                                0x40002c14   Data           4  main.o(.data)
    AGuiderDec                               0x40002c18   Data           4  main.o(.data)
    u2                                       0x40002c1c   Data           2  main.o(.data)
    uf4                                      0x40002c20   Data           4  main.o(.data)
    d8                                       0x40002c28   Data           8  main.o(.data)
    g_sTelType1                              0x40002c30   Data           4  main.o(.data)
    g_sTelType2                              0x40002c34   Data           4  main.o(.data)
    g_sTelType3                              0x40002c38   Data           4  main.o(.data)
    g_sTelType4                              0x40002c3c   Data           4  main.o(.data)
    g_sTelType5                              0x40002c40   Data           4  main.o(.data)
    g_sTelType6                              0x40002c44   Data           4  main.o(.data)
    g_sTelType7                              0x40002c48   Data           4  main.o(.data)
    g_sTelType8                              0x40002c4c   Data           4  main.o(.data)
    g_mhelpshow                              0x40002c50   Data           1  main.o(.data)
    g_mmainhelpshow                          0x40002c51   Data           1  main.o(.data)
    g_mKeyBeepOpen                           0x40002c52   Data           1  main.o(.data)
    g_nAlignStar                             0x40002c54   Data           4  main.o(.data)
    g_nSelAlignStarNum                       0x40002c58   Data           1  main.o(.data)
    g_nSeledAlignStarNum                     0x40002c59   Data           1  main.o(.data)
    g_nAlignPoint                            0x40002c5a   Data           1  main.o(.data)
    g_nsysstatus                             0x40002c5c   Data           4  main.o(.data)
    g_bkeyoperator                           0x40002c60   Data           1  main.o(.data)
    m_nkeyvalue                              0x40002c61   Data           1  main.o(.data)
    g_mDaylight                              0x40002c62   Data           1  main.o(.data)
    g_mStarRiseTime                          0x40002c68   Data           8  main.o(.data)
    g_mStarTransitTime                       0x40002c70   Data           8  main.o(.data)
    g_mStarSetTime                           0x40002c78   Data           8  main.o(.data)
    g_telra                                  0x40002c80   Data           8  main.o(.data)
    g_teldec                                 0x40002c88   Data           8  main.o(.data)
    g_mRaTrackSpeed                          0x40002c90   Data           8  main.o(.data)
    g_mPoleAxisEW                            0x40002c98   Data           8  main.o(.data)
    g_mPoleAxisNS                            0x40002ca0   Data           8  main.o(.data)
    g_mObjRa_shi                             0x40002ca8   Data           4  main.o(.data)
    g_mObjRa_fen                             0x40002cac   Data           4  main.o(.data)
    g_mObjRa_miao                            0x40002cb0   Data           4  main.o(.data)
    g_mObjRa                                 0x40002cb8   Data           8  main.o(.data)
    g_mObjRa1                                0x40002cc0   Data           4  main.o(.data)
    g_mObjRa2                                0x40002cc4   Data           4  main.o(.data)
    g_mObjHourA_shi                          0x40002cc8   Data           4  main.o(.data)
    g_mObjHourA_fen                          0x40002ccc   Data           4  main.o(.data)
    g_mObjHourA_miao                         0x40002cd0   Data           4  main.o(.data)
    g_mObjHourA                              0x40002cd8   Data           8  main.o(.data)
    g_mObjHourA1                             0x40002ce0   Data           4  main.o(.data)
    g_mObjDec_du                             0x40002ce4   Data           4  main.o(.data)
    g_mObjDec_fen                            0x40002ce8   Data           4  main.o(.data)
    g_mObjDec_miao                           0x40002cec   Data           4  main.o(.data)
    g_mObjDec_du1                            0x40002cf0   Data           4  main.o(.data)
    g_mObjDec_fen1                           0x40002cf4   Data           4  main.o(.data)
    g_mObjDec_miao1                          0x40002cf8   Data           4  main.o(.data)
    g_mObjDec                                0x40002d00   Data           8  main.o(.data)
    g_mObjDec1                               0x40002d08   Data           4  main.o(.data)
    g_mObjDec2                               0x40002d0c   Data           4  main.o(.data)
    g_mObjAzi_du                             0x40002d10   Data           4  main.o(.data)
    g_mObjAzi_fen                            0x40002d14   Data           4  main.o(.data)
    g_mObjAzi_miao                           0x40002d18   Data           4  main.o(.data)
    g_mObjAzi                                0x40002d20   Data           8  main.o(.data)
    g_mTbjRa                                 0x40002d28   Data           8  main.o(.data)
    g_gObjDec_sign                           0x40002d30   Data           4  main.o(.data)
    g_gObjDec_sign1                          0x40002d34   Data           4  main.o(.data)
    g_mObjAlt_du                             0x40002d38   Data           4  main.o(.data)
    g_mObjAlt_fen                            0x40002d3c   Data           4  main.o(.data)
    g_mObjAlt_miao                           0x40002d40   Data           4  main.o(.data)
    g_mObjAlt                                0x40002d48   Data           8  main.o(.data)
    g_mTbjDec                                0x40002d50   Data           8  main.o(.data)
    g_mTelRa_shi                             0x40002d58   Data           4  main.o(.data)
    g_mTelRa_fen                             0x40002d5c   Data           4  main.o(.data)
    g_mTelRa_miao                            0x40002d60   Data           4  main.o(.data)
    g_mTelRa                                 0x40002d68   Data           8  main.o(.data)
    g_mTelRaUtr1                             0x40002d70   Data           8  main.o(.data)
    g_mTelDec_du                             0x40002d78   Data           4  main.o(.data)
    g_mTelDec_fen                            0x40002d7c   Data           4  main.o(.data)
    g_mTelDec_miao                           0x40002d80   Data           4  main.o(.data)
    g_mTelDec                                0x40002d88   Data           8  main.o(.data)
    g_mTelDecUtr1                            0x40002d90   Data           8  main.o(.data)
    g_mTelAzi_du                             0x40002d98   Data           4  main.o(.data)
    g_mTelAzi_fen                            0x40002d9c   Data           4  main.o(.data)
    g_mTelAzi_miao                           0x40002da0   Data           4  main.o(.data)
    g_mTelAziUtr1                            0x40002da8   Data           8  main.o(.data)
    g_mTelAzi                                0x40002db0   Data           8  main.o(.data)
    g_mTelAzi0                               0x40002db8   Data           8  main.o(.data)
    g_mTelAzi1                               0x40002dc0   Data           8  main.o(.data)
    g_mTelAzi2                               0x40002dc8   Data           8  main.o(.data)
    g_mTelAlt_du                             0x40002dd0   Data           4  main.o(.data)
    g_mTelAlt_fen                            0x40002dd4   Data           4  main.o(.data)
    g_mTelAlt_miao                           0x40002dd8   Data           4  main.o(.data)
    g_mTelAltUtr1                            0x40002de0   Data           8  main.o(.data)
    g_mTelAlt                                0x40002de8   Data           8  main.o(.data)
    g_mTelAlt0                               0x40002df0   Data           8  main.o(.data)
    g_mTelAlt1                               0x40002df8   Data           8  main.o(.data)
    g_mTelAlt2                               0x40002e00   Data           8  main.o(.data)
    g_mSitLon_du                             0x40002e08   Data           4  main.o(.data)
    g_mSitLon_fen                            0x40002e0c   Data           4  main.o(.data)
    g_mSitLon_miao                           0x40002e10   Data           4  main.o(.data)
    g_mSitLon                                0x40002e18   Data           8  main.o(.data)
    g_mSitLontemp                            0x40002e20   Data           4  main.o(.data)
    g_mSitLon_WE                             0x40002e24   Data           4  main.o(.data)
    g_mSitLat_du                             0x40002e28   Data           4  main.o(.data)
    g_mSitLat_fen                            0x40002e2c   Data           4  main.o(.data)
    g_mSitLat_miao                           0x40002e30   Data           4  main.o(.data)
    g_mSitLat_SN                             0x40002e34   Data           4  main.o(.data)
    g_mSitLat                                0x40002e38   Data           8  main.o(.data)
    g_mSitLattemp                            0x40002e40   Data           4  main.o(.data)
    g_mTimeZone                              0x40002e44   Data           4  main.o(.data)
    g_mTimeZonetemp                          0x40002e48   Data           4  main.o(.data)
    g_mDate_year                             0x40002e4c   Data           4  main.o(.data)
    g_mDate_month                            0x40002e50   Data           1  main.o(.data)
    g_mDate_day                              0x40002e51   Data           1  main.o(.data)
    g_mTime_hour                             0x40002e52   Data           1  main.o(.data)
    g_mTime_minute                           0x40002e53   Data           1  main.o(.data)
    g_mTime_second                           0x40002e54   Data           1  main.o(.data)
    g_mTime_wMilliseconds                    0x40002e56   Data           2  main.o(.data)
    g_sildtime0                              0x40002e58   Data           8  main.o(.data)
    g_sildtime1                              0x40002e60   Data           8  main.o(.data)
    g_mdatetime                              0x40002e68   Data           1  main.o(.data)
    g_mSkyLand                               0x40002e69   Data           1  main.o(.data)
    g_mAzEq                                  0x40002e6a   Data           1  main.o(.data)
    g_mGps                                   0x40002e6b   Data           1  main.o(.data)
    g_mTrackSpeed                            0x40002e6c   Data           1  main.o(.data)
    g_mHandSpeed                             0x40002e6d   Data           1  main.o(.data)
    g_mHandSpeed1                            0x40002e6e   Data           1  main.o(.data)
    g_mHandSpeedAzi                          0x40002e70   Data           4  main.o(.data)
    g_mHandSpeedAlt                          0x40002e74   Data           4  main.o(.data)
    g_mTelStatus                             0x40002e78   Data           1  main.o(.data)
    g_mTelStatusSet                          0x40002e79   Data           1  main.o(.data)
    g_mOperateStatus                         0x40002e7a   Data           1  main.o(.data)
    g_mGotoHandMove                          0x40002e7b   Data           1  main.o(.data)
    g_mGotoHandMoveOK                        0x40002e7c   Data           1  main.o(.data)
    g_mRaAziGearError                        0x40002e80   Data           4  main.o(.data)
    g_mRaAziGearErrorTotal                   0x40002e84   Data           4  main.o(.data)
    g_mRaAziGearEvenError                    0x40002e88   Data           4  main.o(.data)
    g_mRaAziGearErrorNum                     0x40002e8c   Data           4  main.o(.data)
    g_mDecAltGearError                       0x40002e90   Data           4  main.o(.data)
    g_mDecAltGearErrorTotal                  0x40002e94   Data           4  main.o(.data)
    g_mDecAltGearEvenError                   0x40002e98   Data           4  main.o(.data)
    g_mDecAltGearErrorNum                    0x40002e9c   Data           4  main.o(.data)
    g_mGearErrorAlign                        0x40002ea0   Data           4  main.o(.data)
    g_mNowBestObjectNum                      0x40002ea4   Data           1  main.o(.data)
    g_mSunSysObjectNum                       0x40002ea5   Data           1  main.o(.data)
    g_mPopularNameObjectNum                  0x40002ea6   Data           2  main.o(.data)
    g_mMsrObjectNum                          0x40002ea8   Data           2  main.o(.data)
    g_mNgcObjectNum                          0x40002eaa   Data           2  main.o(.data)
    g_mIcObjectNum                           0x40002eac   Data           2  main.o(.data)
    g_mSh2ObjectNum                          0x40002eae   Data           2  main.o(.data)
    g_mBrightObjectNum                       0x40002eb0   Data           2  main.o(.data)
    g_mSaoObjectNum                          0x40002eb4   Data           4  main.o(.data)
    g_mInputStarNum                          0x40002eb8   Data           4  main.o(.data)
    g_mHershelObjectNum                      0x40002ebc   Data           2  main.o(.data)
    g_mCon88ObjectNum                        0x40002ebe   Data           1  main.o(.data)
    g_mCon88StarObjectNum                    0x40002ec0   Data           2  main.o(.data)
    g_mFamousStarObjectNum                   0x40002ec2   Data           1  main.o(.data)
    g_mFixedStarObjectNum                    0x40002ec4   Data           2  main.o(.data)
    g_mDoubleStarObjectNum                   0x40002ec6   Data           2  main.o(.data)
    g_mVariableStarObjectNum                 0x40002ec8   Data           2  main.o(.data)
    g_mFindObjectAcc                         0x40002eca   Data           2  main.o(.data)
    g_mMySiteOperator                        0x40002ecc   Data           1  main.o(.data)
    g_mBackLashAxis                          0x40002ecd   Data           1  main.o(.data)
    g_mCountry                               0x40002ece   Data           1  main.o(.data)
    g_mCity                                  0x40002ecf   Data           1  main.o(.data)
    g_mTelPosA                               0x40002ed0   Data           4  main.o(.data)
    g_mTelPosAEr                             0x40002ed4   Data           4  main.o(.data)
    g_mTelPosE                               0x40002ed8   Data           4  main.o(.data)
    g_mTelPosEEr                             0x40002edc   Data           4  main.o(.data)
    g_mTelPosAENum                           0x40002ee0   Data           2  main.o(.data)
    g_mTelPosAENumMax                        0x40002ee2   Data           2  main.o(.data)
    g_mTelAZErrorWtiteflag                   0x40002ee4   Data           1  main.o(.data)
    g_mTelPec                                0x40002ee5   Data           1  main.o(.data)
    g_mAutoBackMainShow                      0x40002ee6   Data           1  main.o(.data)
    g_mGotoPause                             0x40002ee7   Data           1  main.o(.data)
    g_mAutoBackMainShownum                   0x40002ee8   Data           4  main.o(.data)
    g_mCurrentTelAzi                         0x40002eec   Data           4  main.o(.data)
    g_mCurrentTelAlt                         0x40002ef0   Data           4  main.o(.data)
    g_mCurrentObjRa                          0x40002ef4   Data           4  main.o(.data)
    g_mCurrentObjDec                         0x40002ef8   Data           4  main.o(.data)
    g_mRecentTargetNum                       0x40002efc   Data           1  main.o(.data)
    g_mTargetType                            0x40002efd   Data           1  main.o(.data)
    g_mTargetnum                             0x40002f00   Data           4  main.o(.data)
    g_RecentNum                              0x40002f04   Data           1  main.o(.data)
    g_RecentType                             0x40002f05   Data           8  main.o(.data)
    g_mTempstrnum                            0x40002f0d   Data           1  main.o(.data)
    g_mSysInitGuide                          0x40002f0e   Data           1  main.o(.data)
    g_sysmenu1000                            0x40002f10   Data           4  main.o(.data)
    g_sysmenu2000                            0x40002f14   Data           4  main.o(.data)
    g_sysmenu3000                            0x40002f18   Data           4  main.o(.data)
    g_sysmenu4000                            0x40002f1c   Data           4  main.o(.data)
    g_sysmenu1100                            0x40002f20   Data           4  main.o(.data)
    g_sysmenu1200                            0x40002f24   Data           4  main.o(.data)
    g_sysmenu1300                            0x40002f28   Data           4  main.o(.data)
    g_sysmenu1400                            0x40002f2c   Data           4  main.o(.data)
    g_sysmenu1500                            0x40002f30   Data           4  main.o(.data)
    g_sysmenu1600                            0x40002f34   Data           4  main.o(.data)
    g_sysmenu1700                            0x40002f38   Data           4  main.o(.data)
    g_sysmenu1800                            0x40002f3c   Data           4  main.o(.data)
    g_sysmenu1900                            0x40002f40   Data           4  main.o(.data)
    g_sysmenu1110                            0x40002f44   Data           4  main.o(.data)
    g_sysmenu1120                            0x40002f48   Data           4  main.o(.data)
    g_sysmenu2100                            0x40002f4c   Data           4  main.o(.data)
    g_sysmenu2200                            0x40002f50   Data           4  main.o(.data)
    g_sysmenu2300                            0x40002f54   Data           4  main.o(.data)
    g_sysmenu2400                            0x40002f58   Data           4  main.o(.data)
    g_sysmenu2500                            0x40002f5c   Data           4  main.o(.data)
    g_sysmenu2600                            0x40002f60   Data           4  main.o(.data)
    g_sysmenu2700                            0x40002f64   Data           4  main.o(.data)
    g_sysmenu2800                            0x40002f68   Data           4  main.o(.data)
    g_sysmenu2900                            0x40002f6c   Data           4  main.o(.data)
    g_sysmenu2110                            0x40002f70   Data           4  main.o(.data)
    g_sysmenu2120                            0x40002f74   Data           4  main.o(.data)
    g_sysmenu2130                            0x40002f78   Data           4  main.o(.data)
    g_sysmenu3100                            0x40002f7c   Data           4  main.o(.data)
    g_sysmenu3200                            0x40002f80   Data           4  main.o(.data)
    g_sysmenu3300                            0x40002f84   Data           4  main.o(.data)
    g_sysmenu3400                            0x40002f88   Data           4  main.o(.data)
    g_sysmenu3500                            0x40002f8c   Data           4  main.o(.data)
    g_sysmenu3600                            0x40002f90   Data           4  main.o(.data)
    g_sysmenu3700                            0x40002f94   Data           4  main.o(.data)
    g_sysmenu3800                            0x40002f98   Data           4  main.o(.data)
    g_sysmenu3900                            0x40002f9c   Data           4  main.o(.data)
    g_sysmenu3110                            0x40002fa0   Data           4  main.o(.data)
    g_sysmenu4100                            0x40002fa4   Data           4  main.o(.data)
    g_sysmenu4200                            0x40002fa8   Data           4  main.o(.data)
    g_sysmenu4300                            0x40002fac   Data           4  main.o(.data)
    g_sysmenu4400                            0x40002fb0   Data           4  main.o(.data)
    g_sysmenu4500                            0x40002fb4   Data           4  main.o(.data)
    g_sysmenu4600                            0x40002fb8   Data           4  main.o(.data)
    g_sysmenu4700                            0x40002fbc   Data           4  main.o(.data)
    g_sysmenu4800                            0x40002fc0   Data           4  main.o(.data)
    g_sysmenu4900                            0x40002fc4   Data           4  main.o(.data)
    g_sysmenu4110                            0x40002fc8   Data           4  main.o(.data)
    g_sysmenu2201                            0x40002fcc   Data           4  main.o(.data)
    g_sysmenu2202                            0x40002fd0   Data           4  main.o(.data)
    g_sysmenu2203                            0x40002fd4   Data           4  main.o(.data)
    g_sysmenu2204                            0x40002fd8   Data           4  main.o(.data)
    g_sysmenu2205                            0x40002fdc   Data           4  main.o(.data)
    g_sysmenu2206                            0x40002fe0   Data           4  main.o(.data)
    g_sysmenu2207                            0x40002fe4   Data           4  main.o(.data)
    g_sysmenu2208                            0x40002fe8   Data           4  main.o(.data)
    g_sysmenu2209                            0x40002fec   Data           4  main.o(.data)
    g_sysmenu22010                           0x40002ff0   Data           4  main.o(.data)
    g_sysmenu22011                           0x40002ff4   Data           4  main.o(.data)
    g_sysmenu2301                            0x40002ff8   Data           4  main.o(.data)
    g_sysmenu2302                            0x40002ffc   Data           4  main.o(.data)
    g_sysmenu2303                            0x40003000   Data           4  main.o(.data)
    g_sysmenu2304                            0x40003004   Data           4  main.o(.data)
    g_sysmenu2305                            0x40003008   Data           4  main.o(.data)
    g_sysmenu2306                            0x4000300c   Data           4  main.o(.data)
    g_sysmenu2307                            0x40003010   Data           4  main.o(.data)
    g_sysmenu2308                            0x40003014   Data           4  main.o(.data)
    g_sysmenu2501                            0x40003018   Data           4  main.o(.data)
    g_sysmenu2502                            0x4000301c   Data           4  main.o(.data)
    g_sysmenu2503                            0x40003020   Data           4  main.o(.data)
    g_sysmenu2801                            0x40003024   Data           4  main.o(.data)
    g_sysmenu2802                            0x40003028   Data           4  main.o(.data)
    g_sysmenu2803                            0x4000302c   Data           4  main.o(.data)
    g_sysmenu2804                            0x40003030   Data           4  main.o(.data)
    g_sysmenu21101                           0x40003034   Data           4  main.o(.data)
    g_sysmenu21102                           0x40003038   Data           4  main.o(.data)
    g_sysmenu21103                           0x4000303c   Data           4  main.o(.data)
    g_sysmenu3601                            0x40003040   Data           4  main.o(.data)
    g_sysmenu3602                            0x40003044   Data           4  main.o(.data)
    g_sysmenu3801                            0x40003048   Data           4  main.o(.data)
    g_sysmenu3802                            0x4000304c   Data           4  main.o(.data)
    g_sysmenu4301                            0x40003050   Data           4  main.o(.data)
    g_sysmenu4302                            0x40003054   Data           4  main.o(.data)
    g_sysmenu43021                           0x40003058   Data           4  main.o(.data)
    g_sysmenu43022                           0x4000305c   Data           4  main.o(.data)
    g_sysmenu43023                           0x40003060   Data           4  main.o(.data)
    g_sysmenu43024                           0x40003064   Data           4  main.o(.data)
    g_sysmenu4701                            0x40003068   Data           4  main.o(.data)
    g_sysmenu4702                            0x4000306c   Data           4  main.o(.data)
    g_sysmenu4703                            0x40003070   Data           4  main.o(.data)
    g_sysmenu4704                            0x40003074   Data           4  main.o(.data)
    g_sysmenu4801                            0x40003078   Data           4  main.o(.data)
    g_sysmenu4802                            0x4000307c   Data           4  main.o(.data)
    g_sysmenu4803                            0x40003080   Data           4  main.o(.data)
    g_sysmenu4804                            0x40003084   Data           4  main.o(.data)
    g_sysmenu1101                            0x40003088   Data           4  main.o(.data)
    g_sysmenu1102                            0x4000308c   Data           4  main.o(.data)
    g_sysmenu1103                            0x40003090   Data           4  main.o(.data)
    g_sysmenu1104                            0x40003094   Data           4  main.o(.data)
    g_sysmenu1105                            0x40003098   Data           4  main.o(.data)
    g_sysmenu1106                            0x4000309c   Data           4  main.o(.data)
    g_sysmenu1107                            0x400030a0   Data           4  main.o(.data)
    g_sysmenu1108                            0x400030a4   Data           4  main.o(.data)
    g_sysmenu1109                            0x400030a8   Data           4  main.o(.data)
    g_sysnotel1                              0x400030ac   Data           4  main.o(.data)
    g_sysnotel2                              0x400030b0   Data           4  main.o(.data)
    g_sysnotel3                              0x400030b4   Data           4  main.o(.data)
    g_sysmenu11101                           0x400030b8   Data           4  main.o(.data)
    g_sysmenu11102                           0x400030bc   Data           4  main.o(.data)
    g_sysmenu11103                           0x400030c0   Data           4  main.o(.data)
    g_sysmenu11104                           0x400030c4   Data           4  main.o(.data)
    g_sysmenu11105                           0x400030c8   Data           4  main.o(.data)
    g_sysmenu11106                           0x400030cc   Data           4  main.o(.data)
    g_sysmenu11107                           0x400030d0   Data           4  main.o(.data)
    g_sysmenu11108                           0x400030d4   Data           4  main.o(.data)
    g_sysmenu11109                           0x400030d8   Data           4  main.o(.data)
    g_sysmenu111010                          0x400030dc   Data           4  main.o(.data)
    g_sysmenu111011                          0x400030e0   Data           4  main.o(.data)
    g_sysmenu111012                          0x400030e4   Data           4  main.o(.data)
    g_sysmenu111013                          0x400030e8   Data           4  main.o(.data)
    g_sysmenu111014                          0x400030ec   Data           4  main.o(.data)
    g_sysmenu111015                          0x400030f0   Data           4  main.o(.data)
    g_sysmenu111016                          0x400030f4   Data           4  main.o(.data)
    g_sysmenu111017                          0x400030f8   Data           4  main.o(.data)
    g_sysmenu111018                          0x400030fc   Data           4  main.o(.data)
    g_sysmenu111019                          0x40003100   Data           4  main.o(.data)
    g_sysmenu111020                          0x40003104   Data           4  main.o(.data)
    g_sysmenu11201                           0x40003108   Data           4  main.o(.data)
    g_sysmenu11202                           0x4000310c   Data           4  main.o(.data)
    g_sysmenu11203                           0x40003110   Data           4  main.o(.data)
    g_sysmenu11204                           0x40003114   Data           4  main.o(.data)
    g_sysmenu11205                           0x40003118   Data           4  main.o(.data)
    g_sysmenu11206                           0x4000311c   Data           4  main.o(.data)
    g_sysmenu11207                           0x40003120   Data           4  main.o(.data)
    g_sysmenu11208                           0x40003124   Data           4  main.o(.data)
    g_sysmenu2100object_nameCn               0x40003128   Data           4  main.o(.data)
    g_sysmenu2200object_nameCn               0x4000312c   Data           4  main.o(.data)
    g_mMySiteShowMode                        0x40003130   Data           1  main.o(.data)
    g_sysmenu4300sitetitle                   0x40003131   Data           1  main.o(.data)
    g_sysmenu2100object_nameEn               0x40003134   Data           4  main.o(.data)
    g_sysmenu2200object_nameEn               0x40003138   Data           4  main.o(.data)
    g_sysmenu4100timeEn                      0x4000313c   Data           8  main.o(.data)
    g_sysmenu4300sitetitleEn                 0x40003144   Data           1  main.o(.data)
    g_sitenametemp                           0x40003145   Data           8  main.o(.data)
    g_mBestStarNum                           0x4000314d   Data           1  main.o(.data)
    g_mRaDecMode                             0x4000314e   Data           1  main.o(.data)
    g_mMoonPhaseYear                         0x40003150   Data           4  main.o(.data)
    g_mMoonPhaseMonth                        0x40003154   Data           4  main.o(.data)
    g_mWeatherShowMode                       0x40003158   Data           1  main.o(.data)
    g_mTelZeroShowMode                       0x40003159   Data           1  main.o(.data)
    g_mShowMenurowEn                         0x4000315a   Data           1  main.o(.data)
    g_mShowMenurowUn                         0x4000315b   Data           1  main.o(.data)
    g_mShowMenuFtEn11                        0x4000315c   Data           1  main.o(.data)
    g_mShowMenuFtUn11                        0x4000315d   Data           1  main.o(.data)
    g_mShowMenurowEn11                       0x4000315e   Data           1  main.o(.data)
    g_mShowMenurowUn11                       0x4000315f   Data           1  main.o(.data)
    g_mShowMenuFtEn12                        0x40003160   Data           1  main.o(.data)
    g_mShowMenuFtUn12                        0x40003161   Data           1  main.o(.data)
    g_mShowMenurowEn12                       0x40003162   Data           1  main.o(.data)
    g_mShowMenurowUn12                       0x40003163   Data           1  main.o(.data)
    g_mShowMenuFtEn13                        0x40003164   Data           1  main.o(.data)
    g_mShowMenuFtUn13                        0x40003165   Data           1  main.o(.data)
    g_mShowMenurowEn13                       0x40003166   Data           1  main.o(.data)
    g_mShowMenurowUn13                       0x40003167   Data           1  main.o(.data)
    g_mShowMenuFtEn14                        0x40003168   Data           1  main.o(.data)
    g_mShowMenuFtUn14                        0x40003169   Data           1  main.o(.data)
    g_mShowMenurowEn14                       0x4000316a   Data           1  main.o(.data)
    g_mShowMenurowUn14                       0x4000316b   Data           1  main.o(.data)
    g_mShowMenuFtEn22                        0x4000316c   Data           1  main.o(.data)
    g_mShowMenuFtUn22                        0x4000316d   Data           1  main.o(.data)
    g_mShowMenurowEn22                       0x4000316e   Data           1  main.o(.data)
    g_mShowMenurowUn22                       0x4000316f   Data           1  main.o(.data)
    g_mShowMenuFtEn23                        0x40003170   Data           1  main.o(.data)
    g_mShowMenuFtUn23                        0x40003171   Data           1  main.o(.data)
    g_mShowMenurowEn23                       0x40003172   Data           1  main.o(.data)
    g_mShowMenurowUn23                       0x40003173   Data           1  main.o(.data)
    g_mTelGearErrorRaAlignDirect             0x40003174   Data           1  main.o(.data)
    g_mTelGearErrorDecAlignDirect            0x40003175   Data           1  main.o(.data)
    g_mShowMenucolumn                        0x40003176   Data           1  main.o(.data)
    g_mshowed1                               0x40003178   Data           4  main.o(.data)
    g_mshowed2                               0x4000317c   Data           4  main.o(.data)
    g_mbacklight                             0x40003180   Data           1  main.o(.data)
    g_mTorch                                 0x40003181   Data           1  main.o(.data)
    g_mMenuLangauge                          0x40003182   Data           1  main.o(.data)
    g_mShowLangauge                          0x40003183   Data           1  main.o(.data)
    g_mCapsLock                              0x40003184   Data           1  main.o(.data)
    g_mKeyTurn                               0x40003185   Data           1  main.o(.data)
    g_mFnum                                  0x40003186   Data           1  main.o(.data)
    g_mFDown                                 0x40003187   Data           1  main.o(.data)
    g_mHandControlTelescope                  0x40003188   Data           1  main.o(.data)
    g_mHandControlTelescopetwo               0x40003189   Data           1  main.o(.data)
    position                                 0x4000318c   Data           4  main.o(.data)
    hsendspd1                                0x40003190   Data           4  main.o(.data)
    hsendspd2                                0x40003194   Data           4  main.o(.data)
    hsendposp                                0x40003198   Data           4  main.o(.data)
    hsendpospn                               0x4000319c   Data           4  main.o(.data)
    g_mhmaxspeedchangedirect                 0x400031a0   Data           4  main.o(.data)
    g_mhmaxspeed1                            0x400031a4   Data           1  main.o(.data)
    g_mhmaxspeed2                            0x400031a5   Data           1  main.o(.data)
    g_mhmaxspeedaxis1                        0x400031a6   Data           1  main.o(.data)
    g_mhmaxspeedaxis2                        0x400031a7   Data           1  main.o(.data)
    g_mhmaxspeeddir1                         0x400031a8   Data           1  main.o(.data)
    g_mhmaxspeeddir2                         0x400031a9   Data           1  main.o(.data)
    g_mUsedStarNum                           0x400031aa   Data           1  main.o(.data)
    g_mUsedStarNumMax                        0x400031ab   Data           1  main.o(.data)
    g_mUsedStarRa                            0x400031ac   Data           4  main.o(.data)
    g_mUsedStarDec                           0x400031b0   Data           4  main.o(.data)
    g_mUsedStarRa_shi                        0x400031b4   Data           4  main.o(.data)
    g_mUsedStarRa_fen                        0x400031b8   Data           4  main.o(.data)
    g_mUsedStarRa_miao                       0x400031bc   Data           4  main.o(.data)
    g_mUsedStarDec_du                        0x400031c0   Data           4  main.o(.data)
    g_mUsedStarDec_fen                       0x400031c4   Data           4  main.o(.data)
    g_mUsedStarDec_miao                      0x400031c8   Data           4  main.o(.data)
    g_mSysMenuShowDirect                     0x400031cc   Data           1  main.o(.data)
    g_testtemp                               0x400031cd   Data           1  main.o(.data)
    g_mNoKeyDownNum                          0x400031d0   Data           4  main.o(.data)
    g_keychar                                0x400031d4   Data           1  main.o(.data)
    g_mAlignTelStatus                        0x400031d5   Data           1  main.o(.data)
    m_TcpSynEnable                           0x400031d6   Data           1  main.o(.data)
    m_TcpSynFlash                            0x400031d7   Data           1  main.o(.data)
    g_mgetimefirst                           0x400031d8   Data           1  main.o(.data)
    g_mcalpalnet                             0x400031d9   Data           1  main.o(.data)
    dg_mSkyMapAzi                            0x400031e0   Data           8  main.o(.data)
    dg_mSkyMapAlt                            0x400031e8   Data           8  main.o(.data)
    g_mhandtrackAzi                          0x400031f0   Data           1  main.o(.data)
    g_mhandtrackAlt                          0x400031f1   Data           1  main.o(.data)
    m_GuiderRa                               0x400031f4   Data           4  main.o(.data)
    m_GuiderDec                              0x400031f8   Data           4  main.o(.data)
    m_GuiderSpeed                            0x400031fc   Data           4  main.o(.data)
    g_mObjTimer_sec                          0x40003200   Data           4  main.o(.data)
    BuzCnt                                   0x40003204   Data           4  main.o(.data)
    BuzMode                                  0x40003208   Data           1  main.o(.data)
    g_mObjAlarm_Time                         0x40003209   Data           1  main.o(.data)
    g_mObjAlarm_shi                          0x4000320c   Data           4  main.o(.data)
    g_mObjAlarm_fen                          0x40003210   Data           4  main.o(.data)
    g_mObjAlarm_miao                         0x40003214   Data           4  main.o(.data)
    g_mObjAlarm_open                         0x40003218   Data           1  main.o(.data)
    g_mObjAlarm_open_reset                   0x40003219   Data           1  main.o(.data)
    g_mObjM_MF                               0x4000321c   Data           4  main.o(.data)
    g_mObjM_SF                               0x40003220   Data           4  main.o(.data)
    g_mObjM_Multi                            0x40003224   Data           4  main.o(.data)
    g_mObjM_Mfov                             0x40003228   Data           4  main.o(.data)
    g_mObjM_fov                              0x4000322c   Data           4  main.o(.data)
    g_mflashlight                            0x40003230   Data           1  main.o(.data)
    g_mVir_BL                                0x40003234   Data           4  main.o(.data)
    g_mbattery_alarm                         0x40003238   Data           1  main.o(.data)
    Nationnum_temp                           0x40003239   Data           1  main.o(.data)
    Citynum_temp                             0x4000323a   Data           1  main.o(.data)
    Nationnum                                0x4000323c   Data           2  main.o(.data)
    Citynum                                  0x4000323e   Data           2  main.o(.data)
    Custom_flag                              0x40003240   Data           1  main.o(.data)
    CustomCityNum                            0x40003241   Data           1  main.o(.data)
    CustomStarNum                            0x40003242   Data           2  main.o(.data)
    CustomLandmarkNum                        0x40003244   Data           1  main.o(.data)
    CustomCityNum_temp                       0x40003245   Data           1  main.o(.data)
    CustomStarNum_temp                       0x40003246   Data           2  main.o(.data)
    CustomLandmarkNum_temp                   0x40003248   Data           1  main.o(.data)
    CustomCityNum_set                        0x40003249   Data           1  main.o(.data)
    CustomStarNum_set                        0x4000324a   Data           2  main.o(.data)
    g_mMyStarShowMode                        0x4000324c   Data           1  main.o(.data)
    g_mMyLandmarkShowMode                    0x4000324d   Data           1  main.o(.data)
    g_mMyLandmarkOperator                    0x4000324e   Data           1  main.o(.data)
    g_mMyStarOperator                        0x4000324f   Data           1  main.o(.data)
    g_mShowLandmarkMenurow                   0x40003250   Data           1  main.o(.data)
    sec_intr_counter                         0x40003251   Data           1  main.o(.data)
    StarName                                 0x40003252   Data           8  main.o(.data)
    ra_float                                 0x4000325c   Data           4  main.o(.data)
    dec_float                                0x40003260   Data           4  main.o(.data)
    ra_byte                                  0x40003264   Data           3  main.o(.data)
    dec_byte                                 0x40003267   Data           4  main.o(.data)
    LandMarkName                             0x4000326b   Data           8  main.o(.data)
    az_float                                 0x40003274   Data           4  main.o(.data)
    alt_float                                0x40003278   Data           4  main.o(.data)
    az_byte                                  0x4000327c   Data           6  main.o(.data)
    alt_byte                                 0x40003282   Data           3  main.o(.data)
    azi_zero                                 0x40003288   Data           4  main.o(.data)
    alt_zero                                 0x4000328c   Data           4  main.o(.data)
    tel_zero_error_num                       0x40003290   Data           1  main.o(.data)
    azizero_byte                             0x40003292   Data           6  main.o(.data)
    altzero_byte                             0x40003298   Data           3  main.o(.data)
    Sun_ra                                   0x400032a0   Data           8  main.o(.data)
    Sun_dec                                  0x400032a8   Data           8  main.o(.data)
    Moon_ra                                  0x400032b0   Data           8  main.o(.data)
    Moon_dec                                 0x400032b8   Data           8  main.o(.data)
    Mercury_ra                               0x400032c0   Data           8  main.o(.data)
    Mercury_dec                              0x400032c8   Data           8  main.o(.data)
    Venus_ra                                 0x400032d0   Data           8  main.o(.data)
    Venus_dec                                0x400032d8   Data           8  main.o(.data)
    Mars_ra                                  0x400032e0   Data           8  main.o(.data)
    Mars_dec                                 0x400032e8   Data           8  main.o(.data)
    Jupiter_ra                               0x400032f0   Data           8  main.o(.data)
    Jupiter_dec                              0x400032f8   Data           8  main.o(.data)
    Saturn_ra                                0x40003300   Data           8  main.o(.data)
    Saturn_dec                               0x40003308   Data           8  main.o(.data)
    Uranus_ra                                0x40003310   Data           8  main.o(.data)
    Uranus_dec                               0x40003318   Data           8  main.o(.data)
    Neptune_ra                               0x40003320   Data           8  main.o(.data)
    Neptune_dec                              0x40003328   Data           8  main.o(.data)
    Pluto_ra                                 0x40003330   Data           8  main.o(.data)
    Pluto_dec                                0x40003338   Data           8  main.o(.data)
    sh2                                      0x40003340   Data           8  main.o(.data)
    sao                                      0x40003348   Data           8  main.o(.data)
    gstrlineEn1                              0x40003350   Data           4  main.o(.data)
    gstrlineEn2                              0x40003354   Data           4  main.o(.data)
    gstrlineEn3                              0x40003358   Data           4  main.o(.data)
    gstrlineEn4                              0x4000335c   Data           4  main.o(.data)
    gstrlineEn5                              0x40003360   Data           4  main.o(.data)
    gstrlineEn6                              0x40003364   Data           4  main.o(.data)
    gstrlineEn7                              0x40003368   Data           4  main.o(.data)
    gstrlineEn8                              0x4000336c   Data           4  main.o(.data)
    gstrlineEn9                              0x40003370   Data           4  main.o(.data)
    gstrlineEn10                             0x40003374   Data           4  main.o(.data)
    gstrlineEn11                             0x40003378   Data           4  main.o(.data)
    gstrlineEn12                             0x4000337c   Data           4  main.o(.data)
    gstrlineEn13                             0x40003380   Data           4  main.o(.data)
    gstrlineEn14                             0x40003384   Data           4  main.o(.data)
    gstrlineEn15                             0x40003388   Data           4  main.o(.data)
    gstrlineEn16                             0x4000338c   Data           4  main.o(.data)
    gstrlineEn17                             0x40003390   Data           4  main.o(.data)
    gstrlineEn18                             0x40003394   Data           4  main.o(.data)
    gstrlineUn1                              0x40003398   Data           4  main.o(.data)
    gstrlineUn2                              0x4000339c   Data           4  main.o(.data)
    gstrlineUn3                              0x400033a0   Data           4  main.o(.data)
    gstrlineUn4                              0x400033a4   Data           4  main.o(.data)
    gstrlineUn5                              0x400033a8   Data           4  main.o(.data)
    gstrlineUn6                              0x400033ac   Data           4  main.o(.data)
    gstrlineUn7                              0x400033b0   Data           4  main.o(.data)
    gstrlineUn8                              0x400033b4   Data           4  main.o(.data)
    sendpos                                  0x400033b8   Data           4  main.o(.data)
    sendspd                                  0x400033bc   Data           4  main.o(.data)
    sendspda                                 0x400033c0   Data           4  main.o(.data)
    sendspde                                 0x400033c4   Data           4  main.o(.data)
    dg_mApos                                 0x400033c8   Data           8  main.o(.data)
    dg_mZpos                                 0x400033d0   Data           8  main.o(.data)
    dg_mApos0                                0x400033d8   Data           8  main.o(.data)
    dg_mZpos0                                0x400033e0   Data           8  main.o(.data)
    ddg_mApos                                0x400033e8   Data           8  main.o(.data)
    ddg_mZpos                                0x400033f0   Data           8  main.o(.data)
    g_mAposModify                            0x400033f8   Data           4  main.o(.data)
    g_mZposModify                            0x400033fc   Data           4  main.o(.data)
    dg_mApos_syn                             0x40003400   Data           8  main.o(.data)
    dg_mZpos_syn                             0x40003408   Data           8  main.o(.data)
    syn_mApos                                0x40003410   Data           8  main.o(.data)
    syn_mZpos                                0x40003418   Data           8  main.o(.data)
    g_mstartOTAset                           0x40003420   Data           1  main.o(.data)
    g_mTelGoHome                             0x40003421   Data           1  main.o(.data)
    g_mEQHn                                  0x40003422   Data           1  main.o(.data)
    mtest0                                   0x40003428   Data           8  main.o(.data)
    mtest1                                   0x40003430   Data           8  main.o(.data)
    mtesta0                                  0x40003438   Data           8  main.o(.data)
    mtestz0                                  0x40003440   Data           8  main.o(.data)
    mtesta1                                  0x40003448   Data           8  main.o(.data)
    mtestz1                                  0x40003450   Data           8  main.o(.data)
    mtesta2                                  0x40003458   Data           8  main.o(.data)
    mtestz2                                  0x40003460   Data           8  main.o(.data)
    mtesta3                                  0x40003468   Data           8  main.o(.data)
    mtestz3                                  0x40003470   Data           8  main.o(.data)
    g_mTempTelEpos                           0x40003478   Data           8  main.o(.data)
    g_mGotoBeep                              0x40003480   Data           1  main.o(.data)
    g_mgwt                                   0x40003488   Data           8  main.o(.data)
    g_mAlignStarNum                          0x40003490   Data           1  main.o(.data)
    g_mLandMark                              0x40003491   Data           1  main.o(.data)
    g_mgotostarttype                         0x40003492   Data           1  main.o(.data)
    g_mLandObjAzi                            0x40003494   Data           4  main.o(.data)
    g_mLandObjAlt                            0x40003498   Data           4  main.o(.data)
    g_mPointNewStarTracking                  0x4000349c   Data           1  main.o(.data)
    g_mPointNewStar                          0x4000349d   Data           1  main.o(.data)
    g_RecentRa                               0x400034a0   Data           4  main.o(.data)
    g_RecentDec                              0x400034a4   Data           4  main.o(.data)
    g_mAligndAzi                             0x400034a8   Data           4  main.o(.data)
    g_mAligndAlt                             0x400034ac   Data           4  main.o(.data)
    g_mSidTime                               0x400034b0   Data           4  main.o(.data)
    g_mPauseTrack                            0x400034b4   Data           1  main.o(.data)
    g_mAlignShow                             0x400034b5   Data           1  main.o(.data)
    g_mTelRABack                             0x400034b8   Data           8  main.o(.data)
    g_mTelDecBack                            0x400034c0   Data           8  main.o(.data)
    g_mTelRALastPos                          0x400034c8   Data           8  main.o(.data)
    g_mTelRANextPos                          0x400034d0   Data           8  main.o(.data)
    g_mTelDecLastPos                         0x400034d8   Data           8  main.o(.data)
    g_mTelDecNextPos                         0x400034e0   Data           8  main.o(.data)
    raspd                                    0x400034e8   Data           4  main.o(.data)
    loopi                                    0x400034ec   Data           1  main.o(.data)
    g_mKeyHit                                0x400034ed   Data           1  main.o(.data)
    CurrentRa                                0x400034f0   Data           4  main.o(.data)
    CurrentDec                               0x400034f4   Data           4  main.o(.data)
    SkymapRa                                 0x400034f8   Data           4  main.o(.data)
    SkymapDec                                0x400034fc   Data           4  main.o(.data)
    SkymapLon                                0x40003500   Data           4  main.o(.data)
    SkymapLat                                0x40003504   Data           4  main.o(.data)
    SkymapTZ                                 0x40003508   Data           4  main.o(.data)
    SkymapYear                               0x4000350c   Data           4  main.o(.data)
    SkymapMonth                              0x40003510   Data           1  main.o(.data)
    SkymapDay                                0x40003511   Data           1  main.o(.data)
    SkymapHour                               0x40003512   Data           1  main.o(.data)
    SkymapMin                                0x40003513   Data           1  main.o(.data)
    SkymapSec                                0x40003514   Data           1  main.o(.data)
    SkymapFlag                               0x40003515   Data           1  main.o(.data)
    g_mSendToSkymap                          0x40003516   Data           1  main.o(.data)
    ra                                       0x40003518   Data           8  main.o(.data)
    dec                                      0x40003520   Data           8  main.o(.data)
    lon0                                     0x40003528   Data           4  main.o(.data)
    lat0                                     0x4000352c   Data           4  main.o(.data)
    zone                                     0x40003530   Data           4  main.o(.data)
    d1                                       0x40003534   Data           4  main.o(.data)
    f1                                       0x40003538   Data           4  main.o(.data)
    m1                                       0x4000353c   Data           4  main.o(.data)
    d2                                       0x40003540   Data           4  main.o(.data)
    f2                                       0x40003544   Data           4  main.o(.data)
    m2                                       0x40003548   Data           4  main.o(.data)
    dd                                       0x4000354c   Data           1  main.o(.data)
    tt                                       0x40003550   Data           4  main.o(.data)
    site                                     0x40003554   Data           8  main.o(.data)
    Lon                                      0x4000355c   Data           6  main.o(.data)
    Lat                                      0x40003562   Data           5  main.o(.data)
    Zone                                     0x40003567   Data           3  main.o(.data)
    i                                        0x4000356a   Data           1  main.o(.data)
    rcv_databuf0                             0x40003570   Data          10  main.o(.bss)
    rcv_databuf1                             0x4000357a   Data          10  main.o(.bss)
    g_Targetnum                              0x40003584   Data          32  main.o(.bss)
    g_rdata                                  0x400035a4   Data         528  main.o(.bss)
    g_sysmenu4800raspeed                     0x400037b4   Data          16  main.o(.bss)
    g_sysmenu4800raspeedEn                   0x400037c4   Data          16  main.o(.bss)
    g_sysmenu4100dateEn                      0x400037d4   Data          10  main.o(.bss)
    g_mNowBestObject                         0x400037e0   Data         240  main.o(.bss)
    BestObjectName                           0x400038d0   Data         300  main.o(.bss)
    AlignStarName                            0x400039fc   Data         280  main.o(.bss)
    AlignStarNameCn                          0x40003b14   Data         616  main.o(.bss)
    AlnStar                                  0x40003d7c   Data          64  main.o(.bss)
    con                                      0x40003dbc   Data          48  main.o(.bss)
    messier                                  0x40003df0   Data         152  main.o(.bss)
    bright                                   0x40003e88   Data          32  main.o(.bss)
    ic                                       0x40003ea8   Data          32  main.o(.bss)
    ngc                                      0x40003ec8   Data          32  main.o(.bss)
    city                                     0x40003ee8   Data          28  main.o(.bss)
    city1                                    0x40003f04   Data          52  main.o(.bss)
    CustomStar                               0x40003f38   Data          20  main.o(.bss)
    LandTarget                               0x40003f4c   Data          20  main.o(.bss)
    cstar                                    0x40003f60   Data          24  main.o(.bss)
    cland                                    0x40003f78   Data          25  main.o(.bss)
    gstrtemp1                                0x40003f91   Data          21  main.o(.bss)
    gstrtemp2                                0x40003fa6   Data          21  main.o(.bss)
    gstrtemp3                                0x40003fbb   Data          21  main.o(.bss)
    gstrtemp4                                0x40003fd0   Data          21  main.o(.bss)
    gstrtemp5                                0x40003fe5   Data          21  main.o(.bss)
    gstrtemp6                                0x40003ffa   Data          21  main.o(.bss)
    gstrtemp7                                0x4000400f   Data          21  main.o(.bss)
    gstrtemp8                                0x40004024   Data          21  main.o(.bss)
    gstrtemp9                                0x40004039   Data          21  main.o(.bss)
    gstrtemp10                               0x4000404e   Data          21  main.o(.bss)
    gstrtemp11                               0x40004063   Data          21  main.o(.bss)
    gstrtemp12                               0x40004078   Data          21  main.o(.bss)
    gstrtemp13                               0x4000408d   Data          21  main.o(.bss)
    gstrtemp14                               0x400040a2   Data          21  main.o(.bss)
    gstrtemp15                               0x400040b7   Data          21  main.o(.bss)
    gstrtemp16                               0x400040cc   Data          21  main.o(.bss)
    gstrtemp17                               0x400040e1   Data          21  main.o(.bss)
    gstrtemp18                               0x400040f6   Data          21  main.o(.bss)
    g_mGoto                                  0x40004110   Data         600  main.o(.bss)
    g_mTelError                              0x40004368   Data          48  main.o(.bss)
    m_nLocation                              0x40004398   Data          16  main.o(.bss)
    m_nStarRAD                               0x400043a8   Data          32  main.o(.bss)
    m_nStarAZ                                0x400043c8   Data          72  main.o(.bss)
    g_mTelPeriodErrorA                       0x40004410   Data         800  main.o(.bss)
    g_mTelPeriodErrorE                       0x40004730   Data         800  main.o(.bss)
    g_mStarAlign                             0x40004a50   Data         112  main.o(.bss)
    gLocation                                0x40004ac0   Data          16  main.o(.bss)
    gStarRAD                                 0x40004ad0   Data          32  main.o(.bss)
    gStarAZ                                  0x40004af0   Data          72  main.o(.bss)
    gTelRAD                                  0x40004b38   Data          32  main.o(.bss)
    gTelAZ                                   0x40004b58   Data          72  main.o(.bss)
    s1                                       0x40004ba0   Data          20  main.o(.bss)
    s2                                       0x40004bb4   Data          20  main.o(.bss)
    s3                                       0x40004bc8   Data          20  main.o(.bss)
    s4                                       0x40004bdc   Data          20  main.o(.bss)
    s5                                       0x40004bf0   Data          20  main.o(.bss)
    s6                                       0x40004c04   Data          20  main.o(.bss)
    s7                                       0x40004c18   Data          20  main.o(.bss)
    s8                                       0x40004c2c   Data          20  main.o(.bss)
    data                                     0x40004c40   Data         100  main.o(.bss)
    __libspace_start                         0x40004ca4   Data          96  libspace.o(.bss)
    __temporary_stack_top_libspace           0x40004d04   Number         0  libspace.o(.bss)


================================================================================

Memory Map of the image

  Image Entry point : 0x00000120

  Load Region LR_IROM1 (Base: 0x00000000, Size: 0x0007e8f8, Max: 0x00080000, ABSOLUTE, COMPRESSED[0x0007c848])

    Execution Region ER_IROM1 (Base: 0x00000000, Size: 0x0007b38c, Max: 0x00080000, ABSOLUTE)

    Base Addr    Size         Type   Attr      Idx    E Section Name        Object

    0x00000000   0x00000120   Code   RO            3    RESET               startup.o
    0x00000120   0x00000008   Code   RO           30  * !!!main             __main.o(c_t.l)
    0x00000128   0x0000003c   Code   RO          222    !!!scatter          __scatter.o(c_t.l)
    0x00000164   0x00000060   Code   RO          221    !!dclz77c           __dclz77c.o(c_t.l)
    0x000001c4   0x0000002c   Code   RO          223    !!handler_zi        __scatter_zi.o(c_t.l)
    0x000001f0   0x00000004   Ven    RO          158    .emb_text           lib_init.o(c_t.l)
    0x000001f4   0x00000010   Code   RO          158    .emb_text           lib_init.o(c_t.l)
    0x00000204   0x00000020   Code   RO            4    .text               startup.o
    0x00000224   0x000731d0   Code   RO            6    .text               main.o
    0x000733f4   0x000002f8   Code   RO           12    .text               __printf.o(c_t.l)
    0x000736ec   0x00000054   Code   RO           14    .text               _printf_pad.o(c_t.l)
    0x00073740   0x00000074   Code   RO           15    .text               _printf_dec.o(c_t.l)
    0x000737b4   0x00000008   Ven    RO           16    .text               __0sprintf.o(c_t.l)
    0x000737bc   0x0000002c   Code   RO           16    .text               __0sprintf.o(c_t.l)
    0x000737e8   0x00000008   Ven    RO           17    .text               atoi.o(c_t.l)
    0x000737f0   0x0000001e   Code   RO           17    .text               atoi.o(c_t.l)
    0x0007380e   0x00000156   Code   RO           18    .text               _scanf_longlong.o(c_t.l)
    0x00073964   0x00000064   Code   RO           19    .text               rt_memcpy_w.o(c_t.l)
    0x000739c8   0x00000008   Ven    RO           20    .text               strlen.o(c_t.l)
    0x000739d0   0x00000048   Code   RO           20    .text               strlen.o(c_t.l)
    0x00073a18   0x00000004   Ven    RO           21    .text               aeabi_sdiv.o(c_t.l)
    0x00073a1c   0x00000180   Code   RO           21    .text               aeabi_sdiv.o(c_t.l)
    0x00073b9c   0x00000040   Code   RO           29    .text               stkheap2.o(c_t.l)
    0x00073bdc   0x00000068   Code   RO           81    .text               kernel.o(c_t.l)
    0x00073c44   0x00000060   Code   RO           83    .text               sys_stackheap_outer.o(c_t.l)
    0x00073ca4   0x00000004   Ven    RO           88    .text               rt_errno_addr_intlibspace.o(c_t.l)
    0x00073ca8   0x00000010   Code   RO           88    .text               rt_errno_addr_intlibspace.o(c_t.l)
    0x00073cb8   0x00000010   Code   RO           91    .text               rt_stackheap_storage_intlibspace.o(c_t.l)
    0x00073cc8   0x00000004   Ven    RO           92    .text               llmul.o(c_t.l)
    0x00073ccc   0x0000001c   Code   RO           92    .text               llmul.o(c_t.l)
    0x00073ce8   0x00000008   Ven    RO           93    .text               _rserrno.o(c_t.l)
    0x00073cf0   0x0000001a   Code   RO           93    .text               _rserrno.o(c_t.l)
    0x00073d0a   0x000000a8   Code   RO           94    .text               _printf_intcommon.o(c_t.l)
    0x00073db2   0x00000002   PAD
    0x00073db4   0x000004a0   Code   RO           95    .text               _printf_fp_dec.o(c_t.l)
    0x00074254   0x00000034   Code   RO           96    .text               _printf_char_common.o(c_t.l)
    0x00074288   0x0000000a   Code   RO           97    .text               _sputc.o(c_t.l)
    0x00074292   0x00000022   Code   RO           98    .text               _chval.o(c_t.l)
    0x000742b4   0x00000008   Ven    RO           99    .text               strtod.o(c_t.l)
    0x000742bc   0x000000ac   Code   RO           99    .text               strtod.o(c_t.l)
    0x00074368   0x00000074   Code   RO          100    .text               strtol.o(c_t.l)
    0x000743dc   0x00000004   Ven    RO          101    .text               rtudiv10.o(c_t.l)
    0x000743e0   0x0000002c   Code   RO          101    .text               rtudiv10.o(c_t.l)
    0x0007440c   0x00000010   Code   RO          117    .text               callvia.o(h_t.l)
    0x0007441c   0x00000018   Code   RO          127    .text               sys_exit.o(c_t.l)
    0x00074434   0x0000000c   Code   RO          128    .text               libspace.o(c_t.l)
    0x00074440   0x00000004   Ven    RO          131    .text               rt_ctype_table.o(c_t.l)
    0x00074444   0x00000018   Code   RO          131    .text               rt_ctype_table.o(c_t.l)
    0x0007445c   0x00000004   Ven    RO          134    .text               rt_locale_intlibspace.o(c_t.l)
    0x00074460   0x00000010   Code   RO          134    .text               rt_locale_intlibspace.o(c_t.l)
    0x00074470   0x00000004   Ven    RO          135    .text               lludiv10.o(c_t.l)
    0x00074474   0x000000a0   Code   RO          135    .text               lludiv10.o(c_t.l)
    0x00074514   0x00000016   Code   RO          136    .text               isspace.o(c_t.l)
    0x0007452a   0x00000002   PAD
    0x0007452c   0x000000c8   Code   RO          137    .text               bigflt0.o(c_t.l)
    0x000745f4   0x00000020   Code   RO          150    .text               _printf_outstr_char.o(c_t.l)
    0x00074614   0x0000000a   Code   RO          151    .text               _printf_input_char.o(c_t.l)
    0x0007461e   0x00000046   Code   RO          152    .text               sgetc.o(c_t.l)
    0x00074664   0x000000a6   Code   RO          153    .text               _strtoul.o(c_t.l)
    0x0007470a   0x0000000c   Code   RO          156    .text               exit.o(c_t.l)
    0x00074716   0x00000002   PAD
    0x00074718   0x00000008   Ven    RO          159    .text               lib_init.o(c_t.l)
    0x00074720   0x000000ce   Code   RO          159    .text               lib_init.o(c_t.l)
    0x000747ee   0x00000002   PAD
    0x000747f0   0x0000000c   Code   RO          161    .text               boardinit2.o(c_t.l)
    0x000747fc   0x00000010   Code   RO          162    .text               boardinit3.o(c_t.l)
    0x0007480c   0x00000004   Code   RO          171    .text               use_no_semi.o(c_t.l)
    0x00074810   0x000004e2   Code   RO          172    .text               scanf_fp.o(c_t.l)
    0x00074cf2   0x00000002   PAD
    0x00074cf4   0x000000a0   Code   RO          177    .text               strcmp.o(c_t.l)
    0x00074d94   0x00000006   Code   RO          180    .text               no_argv.o(c_t.l)
    0x00074d9a   0x00000002   PAD
    0x00074d9c   0x00000010   Code   RO          187    .text               rt_fp_status_addr_intlibspace.o(c_t.l)
    0x00074dac   0x00000004   Ven    RO          201    .text               llmullu.o(h_t.l)
    0x00074db0   0x00000008   Code   RO          201    .text               llmullu.o(h_t.l)
    0x00074db8   0x00000008   Ven    RO          206    .text               scanf_hexfp.o(c_t.l)
    0x00074dc0   0x00000530   Code   RO          206    .text               scanf_hexfp.o(c_t.l)
    0x000752f0   0x00000004   Ven    RO          213    .text               llshl.o(c_t.l)
    0x000752f4   0x00000028   Code   RO          213    .text               llshl.o(c_t.l)
    0x0007531c   0x0000001c   Code   RO           22    .text_udiv          aeabi_sdiv.o(c_t.l)
    0x00075338   0x00000004   Ven    RO          139    CL$$btod_d2e        btod.o(c_t.l)
    0x0007533c   0x00000038   Code   RO          139    CL$$btod_d2e        btod.o(c_t.l)
    0x00075374   0x00000054   Code   RO          141    CL$$btod_d2e_denorm_low  btod.o(c_t.l)
    0x000753c8   0x00000068   Code   RO          140    CL$$btod_d2e_norm_op1  btod.o(c_t.l)
    0x00075430   0x0000034c   Code   RO          149    CL$$btod_div_common  btod.o(c_t.l)
    0x0007577c   0x00000064   Code   RO          147    CL$$btod_e2d        btod.o(c_t.l)
    0x000757e0   0x000000dc   Code   RO          146    CL$$btod_e2e        btod.o(c_t.l)
    0x000758bc   0x00000004   Ven    RO          143    CL$$btod_ediv       btod.o(c_t.l)
    0x000758c0   0x00000034   Code   RO          143    CL$$btod_ediv       btod.o(c_t.l)
    0x000758f4   0x00000004   Ven    RO          145    CL$$btod_edivd      btod.o(c_t.l)
    0x000758f8   0x00000034   Code   RO          145    CL$$btod_edivd      btod.o(c_t.l)
    0x0007592c   0x00000004   Ven    RO          142    CL$$btod_emul       btod.o(c_t.l)
    0x00075930   0x00000034   Code   RO          142    CL$$btod_emul       btod.o(c_t.l)
    0x00075964   0x00000004   Ven    RO          144    CL$$btod_emuld      btod.o(c_t.l)
    0x00075968   0x00000034   Code   RO          144    CL$$btod_emuld      btod.o(c_t.l)
    0x0007599c   0x00000268   Code   RO          148    CL$$btod_mult_common  btod.o(c_t.l)
    0x00075c04   0x0000000c   Ven    RO          258    Veneer$$Code        anon$$obj.o
    0x00075c10   0x00000008   Ven    RO          259    Veneer$$Code        anon$$obj.o
    0x00075c18   0x00000008   Ven    RO          260    Veneer$$Code        anon$$obj.o
    0x00075c20   0x0000000c   Ven    RO          261    Veneer$$Code        anon$$obj.o
    0x00075c2c   0x0000000c   Ven    RO          262    Veneer$$Code        anon$$obj.o
    0x00075c38   0x0000000c   Ven    RO          263    Veneer$$Code        anon$$obj.o
    0x00075c44   0x0000000c   Ven    RO          264    Veneer$$Code        anon$$obj.o
    0x00075c50   0x00000030   Code   RO          182    i.__ARM_fpclassify  fpclassify.o(m_ts.l)
    0x00075c80   0x0000001c   Code   RO          218    i.__ARM_isfinite    ldexp.o(m_ts.l)
    0x00075c9c   0x000004ac   Code   RO          121    i.__ieee754_rem_pio2  rred.o(m_ts.l)
    0x00076148   0x00000190   Code   RO          118    i.__kernel_cos      cos_i.o(m_ts.l)
    0x000762d8   0x000000f8   Code   RO          120    i.__kernel_poly     poly.o(m_ts.l)
    0x000763d0   0x00000178   Code   RO          123    i.__kernel_sin      sin_i.o(m_ts.l)
    0x00076548   0x000003d0   Code   RO          125    i.__kernel_tan      tan_i.o(m_ts.l)
    0x00076918   0x00000004   Ven    RO          169    i.__mathlib_classify  classify.o(m_ts.l)
    0x0007691c   0x00000038   Code   RO          169    i.__mathlib_classify  classify.o(m_ts.l)
    0x00076954   0x00000004   Ven    RO          205    i.__mathlib_narrow  narrow.o(m_ts.l)
    0x00076958   0x00000024   Code   RO          205    i.__mathlib_narrow  narrow.o(m_ts.l)
    0x0007697c   0x000000e4   Code   RO          203    i.__mathlib_tofloat  narrow.o(m_ts.l)
    0x00076a60   0x00000004   Ven    RO          170    i.__support_dtoi    dtoi.o(m_ts.l)
    0x00076a64   0x00000060   Code   RO          170    i.__support_dtoi    dtoi.o(m_ts.l)
    0x00076ac4   0x00000004   Ven    RO          202    i.__support_itod    itod.o(m_ts.l)
    0x00076ac8   0x0000000c   Code   RO          202    i.__support_itod    itod.o(m_ts.l)
    0x00076ad4   0x00000004   Ven    RO          217    i.__support_ldexp   ldexp.o(m_ts.l)
    0x00076ad8   0x00000020   Code   RO          217    i.__support_ldexp   ldexp.o(m_ts.l)
    0x00076af8   0x000003d8   Code   RO           62    i.acos              acos.o(m_ts.l)
    0x00076ed0   0x000003e8   Code   RO           65    i.asin              asin.o(m_ts.l)
    0x000772b8   0x00000348   Code   RO           68    i.atan              atan.o(m_ts.l)
    0x00077600   0x00000050   Code   RO           71    i.atof              atof.o(m_ts.l)
    0x00077650   0x000000ec   Code   RO           73    i.cos               cos.o(m_ts.l)
    0x0007773c   0x00000074   Code   RO          210    i.frexp             frexp.o(m_ts.l)
    0x000777b0   0x000000f0   Code   RO          215    i.ldexp             ldexp.o(m_ts.l)
    0x000778a0   0x000000fc   Code   RO           75    i.sin               sin.o(m_ts.l)
    0x0007799c   0x00000078   Code   RO           77    i.sqrt              sqrt.o(m_ts.l)
    0x00077a14   0x000000b0   Code   RO           79    i.tan               tan.o(m_ts.l)
    0x00077ac4   0x00000004   Ven    RO          155    locale$$code        lc_numeric_c.o(c_t.l)
    0x00077ac8   0x00000050   Code   RO          155    locale$$code        lc_numeric_c.o(c_t.l)
    0x00077b18   0x00000004   Ven    RO          174    locale$$code        lc_ctype_c.o(c_t.l)
    0x00077b1c   0x00000050   Code   RO          174    locale$$code        lc_ctype_c.o(c_t.l)
    0x00077b6c   0x000000ac   Code   RO           31    x$fpl$d2f           d2f.o(fz_ts.l)
    0x00077c18   0x000001d4   Code   RO           32    x$fpl$dadd          daddsub_noclz.o(fz_ts.l)
    0x00077dec   0x00000010   Code   RO          103    x$fpl$dcheck        dcheck.o(fz_ts.l)
    0x00077dfc   0x00000010   Code   RO          104    x$fpl$dcheck1       dcheck1.o(fz_ts.l)
    0x00077e0c   0x00000080   Code   RO          105    x$fpl$dcmpinfnan    dcmpin.o(fz_ts.l)
    0x00077e8c   0x00000064   Code   RO          110    x$fpl$dcmpinfnan    fcmpin.o(fz_ts.l)
    0x00077ef0   0x000004c0   Code   RO           36    x$fpl$ddiv          ddiv.o(fz_ts.l)
    0x000783b0   0x00000088   Code   RO           55    x$fpl$deqf          deqf.o(fz_ts.l)
    0x00078438   0x000000b0   Code   RO           37    x$fpl$dfix          dfix.o(fz_ts.l)
    0x000784e8   0x00000058   Code   RO           40    x$fpl$dflt          dflt_noclz.o(fz_ts.l)
    0x00078540   0x0000000c   Code   RO           39    x$fpl$dfltu         dflt_noclz.o(fz_ts.l)
    0x0007854c   0x00000088   Code   RO           56    x$fpl$dleqf         dleqf.o(fz_ts.l)
    0x000785d4   0x000001dc   Code   RO           41    x$fpl$dmul          dmul.o(fz_ts.l)
    0x000787b0   0x000001fc   Code   RO          166    x$fpl$drem          drem.o(fz_ts.l)
    0x000789ac   0x000000a0   Code   RO           57    x$fpl$drleqf        drleqf.o(fz_ts.l)
    0x00078a4c   0x00000018   Code   RO           33    x$fpl$drsb          daddsub_noclz.o(fz_ts.l)
    0x00078a64   0x00000188   Code   RO          106    x$fpl$dsqrt         dsqrt.o(fz_ts.l)
    0x00078bec   0x00000248   Code   RO           34    x$fpl$dsub          daddsub_noclz.o(fz_ts.l)
    0x00078e34   0x00000114   Code   RO          107    x$fpl$dunder        dunder.o(fz_ts.l)
    0x00078f48   0x00000064   Code   RO           42    x$fpl$f2d           f2d.o(fz_ts.l)
    0x00078fac   0x00000108   Code   RO           43    x$fpl$fadd          faddsub_noclz.o(fz_ts.l)
    0x000790b4   0x0000000c   Code   RO          108    x$fpl$fcheck        fcheck.o(fz_ts.l)
    0x000790c0   0x0000000c   Code   RO          109    x$fpl$fcheck1       fcheck1.o(fz_ts.l)
    0x000790cc   0x000001e4   Code   RO           47    x$fpl$fdiv          fdiv.o(fz_ts.l)
    0x000792b0   0x00000078   Code   RO           58    x$fpl$feqf          feqf.o(fz_ts.l)
    0x00079328   0x00000074   Code   RO           48    x$fpl$ffix          ffix.o(fz_ts.l)
    0x0007939c   0x00000060   Code   RO           50    x$fpl$ffixu         ffixu.o(fz_ts.l)
    0x000793fc   0x0000005c   Code   RO           53    x$fpl$fflt          fflt_noclz.o(fz_ts.l)
    0x00079458   0x00000008   Code   RO           52    x$fpl$ffltu         fflt_noclz.o(fz_ts.l)
    0x00079460   0x00000078   Code   RO           59    x$fpl$fleqf         fleqf.o(fz_ts.l)
    0x000794d8   0x00000108   Code   RO           54    x$fpl$fmul          fmul.o(fz_ts.l)
    0x000795e0   0x00000094   Code   RO          111    x$fpl$fnorm2        fnorm2_noclz.o(fz_ts.l)
    0x00079674   0x00000004   Ven    RO          181    x$fpl$fpinit        fpinit.o(fz_ts.l)
    0x00079678   0x00000018   Code   RO          181    x$fpl$fpinit        fpinit.o(fz_ts.l)
    0x00079690   0x00000084   Code   RO           60    x$fpl$frleqf        frleqf.o(fz_ts.l)
    0x00079714   0x00000014   Code   RO           44    x$fpl$frsb          faddsub_noclz.o(fz_ts.l)
    0x00079728   0x00000168   Code   RO           45    x$fpl$fsub          faddsub_noclz.o(fz_ts.l)
    0x00079890   0x00000090   Code   RO          112    x$fpl$funder        funder.o(fz_ts.l)
    0x00079920   0x00000004   Ven    RO          167    x$fpl$ieeestatus    istatus.o(fz_ts.l)
    0x00079924   0x00000008   Code   RO          167    x$fpl$ieeestatus    istatus.o(fz_ts.l)
    0x0007992c   0x00000004   Ven    RO           61    x$fpl$printf1       printf1.o(fz_ts.l)
    0x00079930   0x00000004   Code   RO           61    x$fpl$printf1       printf1.o(fz_ts.l)
    0x00079934   0x00000074   Code   RO          164    x$fpl$retnan        retnan.o(fz_ts.l)
    0x000799a8   0x0000006c   Code   RO          116    x$fpl$scalbn        scalbn_noclz.o(fz_ts.l)
    0x00079a14   0x00000004   Ven    RO          168    x$fpl$scanf1        scanf1.o(fz_ts.l)
    0x00079a18   0x00000004   Code   RO          168    x$fpl$scanf1        scanf1.o(fz_ts.l)
    0x00079a1c   0x00000004   Ven    RO          198    x$fpl$scanf2        scanf2.o(fz_ts.l)
    0x00079a20   0x00000008   Code   RO          198    x$fpl$scanf2        scanf2.o(fz_ts.l)
    0x00079a28   0x0000003c   Code   RO          165    x$fpl$trapveneer    trapv.o(fz_ts.l)
    0x00079a64   0x00000000   Code   RO          102    x$fpl$usenofp       usenofp.o(fz_ts.l)
    0x00079a64   0x00001470   Data   RO            8    .constdata          main.o
    0x0007aed4   0x00000011   Data   RO           13    .constdata          __printf.o(c_t.l)
    0x0007aee5   0x00000003   PAD
    0x0007aee8   0x00000050   Data   RO           64    .constdata          acos.o(m_ts.l)
    0x0007af38   0x00000050   Data   RO           67    .constdata          asin.o(m_ts.l)
    0x0007af88   0x00000098   Data   RO           70    .constdata          atan.o(m_ts.l)
    0x0007b020   0x00000030   Data   RO          119    .constdata          cos_i.o(m_ts.l)
    0x0007b050   0x000000c0   Data   RO          122    .constdata          rred.o(m_ts.l)
    0x0007b110   0x00000028   Data   RO          124    .constdata          sin_i.o(m_ts.l)
    0x0007b138   0x00000060   Data   RO          126    .constdata          tan_i.o(m_ts.l)
    0x0007b198   0x00000094   Data   RO          138    .constdata          bigflt0.o(c_t.l)
    0x0007b22c   0x00000004   PAD
    0x0007b230   0x00000008   Data   RO          219    .constdata          qnan.o(m_ts.l)
    0x0007b238   0x00000020   Data   RO          220    Region$$Table       anon$$obj.o
    0x0007b258   0x00000008   Data   RO          194    c$$dinf             fpconst.o(fz_ts.l)
    0x0007b260   0x0000001c   Data   RO          154    locale$$data        lc_numeric_c.o(c_t.l)
    0x0007b27c   0x00000110   Data   RO          173    locale$$data        lc_ctype_c.o(c_t.l)


    Execution Region RW_IRAM1 (Base: 0x40000000, Size: 0x00005190, Max: 0x00008000, ABSOLUTE, COMPRESSED[0x000014bc])

    Base Addr    Size         Type   Attr      Idx    E Section Name        Object

    0x40000000   0x0000356b   Data   RW            7    .data               main.o
    0x4000356b   0x00000005   PAD
    0x40003570   0x00001734   Zero   RW            9    .bss                main.o
    0x40004ca4   0x00000060   Zero   RW          129    .bss                libspace.o(c_t.l)
    0x40004d04   0x00000004   PAD
    0x40004d08   0x00000000   Zero   RW            2    HEAP                startup.o
    0x40004d08   0x00000488   Zero   RW            1    STACK               startup.o


================================================================================

Image component sizes


      Code (inc. data)   RO Data    RW Data    ZI Data      Debug   Object Name

    471504      32836       5232      13675       5940          0   main.o
       320         64          0          0       1160          0   startup.o

    ------------------------------------------------------------------------
    471900      32920       5264      13676       7104          0   Object Totals
        76         20         32          0          0          0   (incl. Generated)
         0          0          0          1          4          0   (incl. Padding)

    ------------------------------------------------------------------------

      Code (inc. data)   RO Data    RW Data    ZI Data      Debug   Library Member Name

        52          4          0          0          0          0   __0sprintf.o
        96          2          0          0          0          0   __dclz77c.o
         8          0          0          0          0          0   __main.o
       760          6         17          0          0          0   __printf.o
        60          8          0          0          0          0   __scatter.o
        44          0          0          0          0          0   __scatter_zi.o
        34          0          0          0          0          0   _chval.o
        52          8          0          0          0          0   _printf_char_common.o
       116         18          0          0          0          0   _printf_dec.o
      1184         30          0          0          0          0   _printf_fp_dec.o
        10          0          0          0          0          0   _printf_input_char.o
       168          0          0          0          0          0   _printf_intcommon.o
        32          0          0          0          0          0   _printf_outstr_char.o
        84          0          0          0          0          0   _printf_pad.o
        34          0          0          0          0          0   _rserrno.o
       342          0          0          0          0          0   _scanf_longlong.o
        10          0          0          0          0          0   _sputc.o
       166          0          0          0          0          0   _strtoul.o
       984         84         80          0          0          0   acos.o
       416          0          0          0          0          0   aeabi_sdiv.o
      1000         80         80          0          0          0   asin.o
       840         80        152          0          0          0   atan.o
        80          8          0          0          0          0   atof.o
        38          0          0          0          0          0   atoi.o
       200          4        148          0          0          0   bigflt0.o
        12          0          0          0          0          0   boardinit2.o
        16          0          0          0          0          0   boardinit3.o
      2252        132          0          0          0          0   btod.o
        16          0          0          0          0          0   callvia.o
        60          0          0          0          0          0   classify.o
       236         24          0          0          0          0   cos.o
       400         28         48          0          0          0   cos_i.o
       172          4          0          0          0          0   d2f.o
      1076         28          0          0          0          0   daddsub_noclz.o
        16          4          0          0          0          0   dcheck.o
        16          4          0          0          0          0   dcheck1.o
       128          0          0          0          0          0   dcmpin.o
      1216        144          0          0          0          0   ddiv.o
       136          4          0          0          0          0   deqf.o
       176          4          0          0          0          0   dfix.o
       100          0          0          0          0          0   dflt_noclz.o
       136          4          0          0          0          0   dleqf.o
       476         16          0          0          0          0   dmul.o
       508         12          0          0          0          0   drem.o
       160          4          0          0          0          0   drleqf.o
       392          8          0          0          0          0   dsqrt.o
       100          0          0          0          0          0   dtoi.o
       276          0          0          0          0          0   dunder.o
        12          0          0          0          0          0   exit.o
       100          4          0          0          0          0   f2d.o
       644          8          0          0          0          0   faddsub_noclz.o
        12          4          0          0          0          0   fcheck.o
        12          4          0          0          0          0   fcheck1.o
       100          0          0          0          0          0   fcmpin.o
       484         76          0          0          0          0   fdiv.o
       120          4          0          0          0          0   feqf.o
       116          4          0          0          0          0   ffix.o
        96          4          0          0          0          0   ffixu.o
       100          0          0          0          0          0   fflt_noclz.o
       120          4          0          0          0          0   fleqf.o
       264          4          0          0          0          0   fmul.o
       148          0          0          0          0          0   fnorm2_noclz.o
        48          4          0          0          0          0   fpclassify.o
         0          0          8          0          0          0   fpconst.o
        28          0          0          0          0          0   fpinit.o
       116          4          0          0          0          0   frexp.o
       132          4          0          0          0          0   frleqf.o
       144          0          0          0          0          0   funder.o
        22          0          0          0          0          0   isspace.o
        12          0          0          0          0          0   istatus.o
        16          0          0          0          0          0   itod.o
       104          4          0          0          0          0   kernel.o
        84          8        272          0          0          0   lc_ctype_c.o
        84          8         28          0          0          0   lc_numeric_c.o
       304         24          0          0          0          0   ldexp.o
       234          4          0          0          0          0   lib_init.o
        12          4          0          0         96          0   libspace.o
        32          0          0          0          0          0   llmul.o
        12          0          0          0          0          0   llmullu.o
        44          0          0          0          0          0   llshl.o
       164          0          0          0          0          0   lludiv10.o
       268         20          0          0          0          0   narrow.o
         6          0          0          0          0          0   no_argv.o
       248          0          0          0          0          0   poly.o
         8          0          0          0          0          0   printf1.o
         0          0          8          0          0          0   qnan.o
       116          0          0          0          0          0   retnan.o
      1196        104        192          0          0          0   rred.o
        28          4          0          0          0          0   rt_ctype_table.o
        20          4          0          0          0          0   rt_errno_addr_intlibspace.o
        16          4          0          0          0          0   rt_fp_status_addr_intlibspace.o
        20          4          0          0          0          0   rt_locale_intlibspace.o
       100          0          0          0          0          0   rt_memcpy_w.o
        16          4          0          0          0          0   rt_stackheap_storage_intlibspace.o
        48          0          0          0          0          0   rtudiv10.o
       108          0          0          0          0          0   scalbn_noclz.o
         8          0          0          0          0          0   scanf1.o
        12          0          0          0          0          0   scanf2.o
      1250         24          0          0          0          0   scanf_fp.o
      1336         34          0          0          0          0   scanf_hexfp.o
        70          0          0          0          0          0   sgetc.o
       252         24          0          0          0          0   sin.o
       376         12         40          0          0          0   sin_i.o
       120         20          0          0          0          0   sqrt.o
        64          0          0          0          0          0   stkheap2.o
       160          4          0          0          0          0   strcmp.o
        80          4          0          0          0          0   strlen.o
       180         18          0          0          0          0   strtod.o
       116          4          0          0          0          0   strtol.o
        24          8          0          0          0          0   sys_exit.o
        96          0          0          0          0          0   sys_stackheap_outer.o
       176         24          0          0          0          0   tan.o
       976         64         96          0          0          0   tan_i.o
        60          0          0          0          0          0   trapv.o
         4          0          0          0          0          0   use_no_semi.o
         0          0          0          0          0          0   usenofp.o

    ------------------------------------------------------------------------
     26376       1316       1176          0        100          0   Library Totals
        12          0          7          0          4          0   (incl. Padding)

    ------------------------------------------------------------------------

      Code (inc. data)   RO Data    RW Data    ZI Data      Debug   Library Name

     10612        356        465          0         96          0   c_t.l
      7928        356          8          0          0          0   fz_ts.l
        28          0          0          0          0          0   h_t.l
      7796        604        696          0          0          0   m_ts.l

    ------------------------------------------------------------------------
     26376       1316       1176          0        100          0   Library Totals

    ------------------------------------------------------------------------

================================================================================


      Code (inc. data)   RO Data    RW Data    ZI Data      Debug   

    498276      34236       6440      13676       7204          0   Grand Totals
    498276      34236       6440       5308       7204          0   ELF Image Totals (compressed)
    498276      34236       6440       5308          0          0   ROM Totals

================================================================================

    Total RO  Size (Code + RO Data)               504716 ( 492.89kB)
    Total RW  Size (RW Data + ZI Data)             20880 (  20.39kB)
    Total ROM Size (Code + RO Data + RW Data)     510024 ( 498.07kB)

================================================================================

